
 Start         Length     Name                   Class
 0001:00401000 0003A5E8H .text                   CODE
 0002:0043C000 00000BE0H .itext                  ICODE
 0003:0043D000 00000360H .data                   DATA
 0004:0043E000 00000208H .bss                    BSS
 0005:00000000 00000000H .tls                    TLS


Detailed map of segments

 0001:00000000 000002CE C=CODE     S=.text    G=(none)   M=System   ACBP=A9
 0001:000002D0 0000005D C=CODE     S=.text    G=(none)   M=SysInit  ACBP=A9
 0001:00000330 000001BE C=CODE     S=.text    G=(none)   M=Forms    ACBP=A9
 0001:000004F0 00000006 C=CODE     S=.text    G=(none)   M=UxTheme  ACBP=A9
 0001:000004F8 0000022D C=CODE     S=.text    G=(none)   M=Windows  ACBP=A9
 0001:00000728 0000001E C=CODE     S=.text    G=(none)   M=SyncObjs ACBP=A9
 0001:00000748 00000116 C=CODE     S=.text    G=(none)   M=Classes  ACBP=A9
 0001:00000860 00000006 C=CODE     S=.text    G=(none)   M=TypInfo  ACBP=A9
 0001:00000868 0000016E C=CODE     S=.text    G=(none)   M=SysUtils ACBP=A9
 0001:000009D8 00000006 C=CODE     S=.text    G=(none)   M=Math     ACBP=A9
 0001:000009E0 00000006 C=CODE     S=.text    G=(none)   M=Variants ACBP=A9
 0001:000009E8 00000006 C=CODE     S=.text    G=(none)   M=VarUtils ACBP=A9
 0001:000009F0 00000006 C=CODE     S=.text    G=(none)   M=TimeSpan ACBP=A9
 0001:000009F8 00000006 C=CODE     S=.text    G=(none)   M=HelpIntfs ACBP=A9
 0001:00000A00 00000016 C=CODE     S=.text    G=(none)   M=Contnrs  ACBP=A9
 0001:00000A18 00000006 C=CODE     S=.text    G=(none)   M=MultiMon ACBP=A9
 0001:00000A20 00000006 C=CODE     S=.text    G=(none)   M=ActnList ACBP=A9
 0001:00000A28 0000000E C=CODE     S=.text    G=(none)   M=ImgList  ACBP=A9
 0001:00000A38 00000026 C=CODE     S=.text    G=(none)   M=Graphics ACBP=A9
 0001:00000A60 00000026 C=CODE     S=.text    G=(none)   M=Registry ACBP=A9
 0001:00000A88 0000000E C=CODE     S=.text    G=(none)   M=IniFiles ACBP=A9
 0001:00000A98 0000000E C=CODE     S=.text    G=(none)   M=IOUtils  ACBP=A9
 0001:00000AA8 00000006 C=CODE     S=.text    G=(none)   M=Themes   ACBP=A9
 0001:00000AB0 0000034E C=CODE     S=.text    G=(none)   M=Controls ACBP=A9
 0001:00000E00 000000AE C=CODE     S=.text    G=(none)   M=Menus    ACBP=A9
 0001:00000EB0 0000001E C=CODE     S=.text    G=(none)   M=Dialogs  ACBP=A9
 0001:00000ED0 000000F6 C=CODE     S=.text    G=(none)   M=ComCtrls ACBP=A9
 0001:00000FC8 00000006 C=CODE     S=.text    G=(none)   M=GraphUtil ACBP=A9
 0001:00000FD0 00000006 C=CODE     S=.text    G=(none)   M=ShellAPI ACBP=A9
 0001:00000FD8 0000005E C=CODE     S=.text    G=(none)   M=ExtCtrls ACBP=A9
 0001:00001038 00000006 C=CODE     S=.text    G=(none)   M=Printers ACBP=A9
 0001:00001040 00000006 C=CODE     S=.text    G=(none)   M=Clipbrd  ACBP=A9
 0001:00001048 00000006 C=CODE     S=.text    G=(none)   M=FlatSB   ACBP=A9
 0001:00001050 00000006 C=CODE     S=.text    G=(none)   M=Generics.Defaults ACBP=A9
 0001:00001058 00000006 C=CODE     S=.text    G=(none)   M=Generics.Collections ACBP=A9
 0001:00001060 00000006 C=CODE     S=.text    G=(none)   M=DBClient ACBP=A9
 0001:00001068 00000006 C=CODE     S=.text    G=(none)   M=SqlTimSt ACBP=A9
 0001:00001070 00000006 C=CODE     S=.text    G=(none)   M=DB       ACBP=A9
 0001:00001078 00000006 C=CODE     S=.text    G=(none)   M=WideStrings ACBP=A9
 0001:00001080 00000006 C=CODE     S=.text    G=(none)   M=FMTBcd   ACBP=A9
 0001:00001088 00000006 C=CODE     S=.text    G=(none)   M=ComObj   ACBP=A9
 0001:00001090 00000006 C=CODE     S=.text    G=(none)   M=DSIntf   ACBP=A9
 0001:00001098 00000006 C=CODE     S=.text    G=(none)   M=Provider ACBP=A9
 0001:000010A0 00000006 C=CODE     S=.text    G=(none)   M=AppEvnts ACBP=A9
 0001:000010A8 00000006 C=CODE     S=.text    G=(none)   M=pngimage ACBP=A9
 0001:000010B0 00000006 C=CODE     S=.text    G=(none)   M=Rtti     ACBP=A9
 0001:000010B8 00011BA1 C=CODE     S=.text    G=(none)   M=ceflib   ACBP=A9
 0001:00012C5C 00006064 C=CODE     S=.text    G=(none)   M=cefgui   ACBP=A9
 0001:00018CC0 0000306F C=CODE     S=.text    G=(none)   M=cefvcl   ACBP=A9
 0001:0001BD30 0000000E C=CODE     S=.text    G=(none)   M=ScktComp ACBP=A9
 0001:0001BD40 00000006 C=CODE     S=.text    G=(none)   M=GIFImg   ACBP=A9
 0001:0001BD48 00000006 C=CODE     S=.text    G=(none)   M=jpeg     ACBP=A9
 0001:0001BD50 00000016 C=CODE     S=.text    G=(none)   M=uBaseForm ACBP=A9
 0001:0001BD68 0000000E C=CODE     S=.text    G=(none)   M=FunctionItemIntf ACBP=A9
 0001:0001BD78 00000046 C=CODE     S=.text    G=(none)   M=Services ACBP=A9
 0001:0001BDC0 00000016 C=CODE     S=.text    G=(none)   M=PubFn    ACBP=A9
 0001:0001BDD8 00000006 C=CODE     S=.text    G=(none)   M=GdiPlus  ACBP=A9
 0001:0001BDE0 00000006 C=CODE     S=.text    G=(none)   M=CheckLst ACBP=A9
 0001:0001BDE8 0000001E C=CODE     S=.text    G=(none)   M=WinSkinData ACBP=A9
 0001:0001BE08 00000006 C=CODE     S=.text    G=(none)   M=WinSkinIni ACBP=A9
 0001:0001BE10 00000006 C=CODE     S=.text    G=(none)   M=ImgUtil  ACBP=A9
 0001:0001BE18 0000000E C=CODE     S=.text    G=(none)   M=Buttons  ACBP=A9
 0001:0001BE28 00000006 C=CODE     S=.text    G=(none)   M=Tabs     ACBP=A9
 0001:0001BE30 00000006 C=CODE     S=.text    G=(none)   M=WinSkinDlg ACBP=A9
 0001:0001BE38 00000006 C=CODE     S=.text    G=(none)   M=WinSkinForm ACBP=A9
 0001:0001BE40 00000006 C=CODE     S=.text    G=(none)   M=superobject ACBP=A9
 0001:0001BE48 0000001E C=CODE     S=.text    G=(none)   M=SysFactoryMgr ACBP=A9
 0001:0001BE68 0000000E C=CODE     S=.text    G=(none)   M=CardManage ACBP=A9
 0001:0001BE78 00000006 C=CODE     S=.text    G=(none)   M=SystemInstance ACBP=A9
 0001:0001BE80 000001BB C=CODE     S=.text    G=(none)   M=SysSvc   ACBP=A9
 0001:0001C03C 000004D4 C=CODE     S=.text    G=(none)   M=UFrmException ACBP=A9
 0001:0001C510 00001658 C=CODE     S=.text    G=(none)   M=ceffilescheme ACBP=A9
 0001:0001DB68 0000EB7C C=CODE     S=.text    G=(none)   M=UFrmMain ACBP=A9
 0001:0002C6E4 0000024B C=CODE     S=.text    G=(none)   M=UFrmSplash ACBP=A9
 0001:0002C930 0000000E C=CODE     S=.text    G=(none)   M=SysFactory ACBP=A9
 0001:0002C940 0000030F C=CODE     S=.text    G=(none)   M=SplashFormImpl ACBP=A9
 0001:0002CC50 00000493 C=CODE     S=.text    G=(none)   M=DialogsImpl ACBP=A9
 0001:0002D0E4 00000006 C=CODE     S=.text    G=(none)   M=SysFactoryEx ACBP=A9
 0001:0002D0EC 00000006 C=CODE     S=.text    G=(none)   M=AxCtrls  ACBP=A9
 0001:0002D0F4 0000872D C=CODE     S=.text    G=(none)   M=UPluginMgr ACBP=A9
 0001:00035824 0000049F C=CODE     S=.text    G=(none)   M=Base64EncdDecd ACBP=A9
 0001:00035CC4 000006BB C=CODE     S=.text    G=(none)   M=EncdDecdImpl ACBP=A9
 0001:00036380 000002C4 C=CODE     S=.text    G=(none)   M=ProgressForm ACBP=A9
 0001:00036644 000002F7 C=CODE     S=.text    G=(none)   M=ProgressFormImpl ACBP=A9
 0001:0003693C 00002D78 C=CODE     S=.text    G=(none)   M=SysInfoImpl ACBP=A9
 0001:000396B4 00000122 C=CODE     S=.text    G=(none)   M=RunOnce  ACBP=A9
 0001:000397D8 00000E10 C=CODE     S=.text    G=(none)   M=NvBUS    ACBP=A9
 0002:00000000 00000006 C=ICODE    S=.itext   G=(none)   M=System   ACBP=A9
 0002:00000008 00000006 C=ICODE    S=.itext   G=(none)   M=Forms    ACBP=A9
 0002:00000010 00000006 C=ICODE    S=.itext   G=(none)   M=UxTheme  ACBP=A9
 0002:00000018 00000016 C=ICODE    S=.itext   G=(none)   M=Windows  ACBP=A9
 0002:00000030 00000006 C=ICODE    S=.itext   G=(none)   M=SyncObjs ACBP=A9
 0002:00000038 0000000E C=ICODE    S=.itext   G=(none)   M=Classes  ACBP=A9
 0002:00000048 00000006 C=ICODE    S=.itext   G=(none)   M=TypInfo  ACBP=A9
 0002:00000050 0000001E C=ICODE    S=.itext   G=(none)   M=SysUtils ACBP=A9
 0002:00000070 00000006 C=ICODE    S=.itext   G=(none)   M=Variants ACBP=A9
 0002:00000078 00000006 C=ICODE    S=.itext   G=(none)   M=VarUtils ACBP=A9
 0002:00000080 00000006 C=ICODE    S=.itext   G=(none)   M=TimeSpan ACBP=A9
 0002:00000088 00000006 C=ICODE    S=.itext   G=(none)   M=HelpIntfs ACBP=A9
 0002:00000090 00000006 C=ICODE    S=.itext   G=(none)   M=MultiMon ACBP=A9
 0002:00000098 00000006 C=ICODE    S=.itext   G=(none)   M=ActnList ACBP=A9
 0002:000000A0 00000006 C=ICODE    S=.itext   G=(none)   M=Graphics ACBP=A9
 0002:000000A8 00000006 C=ICODE    S=.itext   G=(none)   M=Registry ACBP=A9
 0002:000000B0 00000006 C=ICODE    S=.itext   G=(none)   M=IniFiles ACBP=A9
 0002:000000B8 0000000E C=ICODE    S=.itext   G=(none)   M=IOUtils  ACBP=A9
 0002:000000C8 00000006 C=ICODE    S=.itext   G=(none)   M=Themes   ACBP=A9
 0002:000000D0 00000006 C=ICODE    S=.itext   G=(none)   M=Controls ACBP=A9
 0002:000000D8 00000006 C=ICODE    S=.itext   G=(none)   M=Menus    ACBP=A9
 0002:000000E0 00000006 C=ICODE    S=.itext   G=(none)   M=Dialogs  ACBP=A9
 0002:000000E8 00000006 C=ICODE    S=.itext   G=(none)   M=ComCtrls ACBP=A9
 0002:000000F0 00000006 C=ICODE    S=.itext   G=(none)   M=GraphUtil ACBP=A9
 0002:000000F8 00000006 C=ICODE    S=.itext   G=(none)   M=ExtCtrls ACBP=A9
 0002:00000100 00000006 C=ICODE    S=.itext   G=(none)   M=Printers ACBP=A9
 0002:00000108 00000006 C=ICODE    S=.itext   G=(none)   M=Clipbrd  ACBP=A9
 0002:00000110 00000006 C=ICODE    S=.itext   G=(none)   M=FlatSB   ACBP=A9
 0002:00000118 00000006 C=ICODE    S=.itext   G=(none)   M=DBClient ACBP=A9
 0002:00000120 00000006 C=ICODE    S=.itext   G=(none)   M=SqlTimSt ACBP=A9
 0002:00000128 00000006 C=ICODE    S=.itext   G=(none)   M=DB       ACBP=A9
 0002:00000130 00000006 C=ICODE    S=.itext   G=(none)   M=WideStrings ACBP=A9
 0002:00000138 00000006 C=ICODE    S=.itext   G=(none)   M=FMTBcd   ACBP=A9
 0002:00000140 00000006 C=ICODE    S=.itext   G=(none)   M=ComObj   ACBP=A9
 0002:00000148 00000006 C=ICODE    S=.itext   G=(none)   M=DSIntf   ACBP=A9
 0002:00000150 00000006 C=ICODE    S=.itext   G=(none)   M=Provider ACBP=A9
 0002:00000158 00000006 C=ICODE    S=.itext   G=(none)   M=AppEvnts ACBP=A9
 0002:00000160 00000006 C=ICODE    S=.itext   G=(none)   M=pngimage ACBP=A9
 0002:00000168 00000006 C=ICODE    S=.itext   G=(none)   M=Rtti     ACBP=A9
 0002:00000170 00000016 C=ICODE    S=.itext   G=(none)   M=ceflib   ACBP=A9
 0002:00000188 0000000C C=ICODE    S=.itext   G=(none)   M=cefvcl   ACBP=A9
 0002:00000194 00000006 C=ICODE    S=.itext   G=(none)   M=GIFImg   ACBP=A9
 0002:0000019C 00000006 C=ICODE    S=.itext   G=(none)   M=jpeg     ACBP=A9
 0002:000001A4 00000006 C=ICODE    S=.itext   G=(none)   M=Services ACBP=A9
 0002:000001AC 00000006 C=ICODE    S=.itext   G=(none)   M=PubFn    ACBP=A9
 0002:000001B4 00000006 C=ICODE    S=.itext   G=(none)   M=GdiPlus  ACBP=A9
 0002:000001BC 00000006 C=ICODE    S=.itext   G=(none)   M=CheckLst ACBP=A9
 0002:000001C4 00000006 C=ICODE    S=.itext   G=(none)   M=WinSkinData ACBP=A9
 0002:000001CC 00000006 C=ICODE    S=.itext   G=(none)   M=WinSkinIni ACBP=A9
 0002:000001D4 00000006 C=ICODE    S=.itext   G=(none)   M=ImgUtil  ACBP=A9
 0002:000001DC 00000006 C=ICODE    S=.itext   G=(none)   M=Buttons  ACBP=A9
 0002:000001E4 00000006 C=ICODE    S=.itext   G=(none)   M=Tabs     ACBP=A9
 0002:000001EC 00000006 C=ICODE    S=.itext   G=(none)   M=WinSkinDlg ACBP=A9
 0002:000001F4 00000006 C=ICODE    S=.itext   G=(none)   M=WinSkinForm ACBP=A9
 0002:000001FC 00000006 C=ICODE    S=.itext   G=(none)   M=superobject ACBP=A9
 0002:00000204 00000006 C=ICODE    S=.itext   G=(none)   M=SysFactoryMgr ACBP=A9
 0002:0000020C 00000006 C=ICODE    S=.itext   G=(none)   M=CardManage ACBP=A9
 0002:00000214 00000006 C=ICODE    S=.itext   G=(none)   M=SystemInstance ACBP=A9
 0002:0000021C 0000000C C=ICODE    S=.itext   G=(none)   M=SysSvc   ACBP=A9
 0002:00000228 000007D4 C=ICODE    S=.itext   G=(none)   M=UFrmMain ACBP=A9
 0002:000009FC 0000000C C=ICODE    S=.itext   G=(none)   M=SplashFormImpl ACBP=A9
 0002:00000A08 00000038 C=ICODE    S=.itext   G=(none)   M=DialogsImpl ACBP=A9
 0002:00000A40 00000006 C=ICODE    S=.itext   G=(none)   M=AxCtrls  ACBP=A9
 0002:00000A48 0000000C C=ICODE    S=.itext   G=(none)   M=UPluginMgr ACBP=A9
 0002:00000A54 00000038 C=ICODE    S=.itext   G=(none)   M=EncdDecdImpl ACBP=A9
 0002:00000A8C 00000038 C=ICODE    S=.itext   G=(none)   M=ProgressFormImpl ACBP=A9
 0002:00000AC4 00000038 C=ICODE    S=.itext   G=(none)   M=SysInfoImpl ACBP=A9
 0002:00000AFC 00000013 C=ICODE    S=.itext   G=(none)   M=RunOnce  ACBP=A9
 0002:00000B10 000000D0 C=ICODE    S=.itext   G=(none)   M=NvBUS    ACBP=A9
 0003:00000000 00000024 C=DATA     S=.data    G=DGROUP   M=SysInit  ACBP=A9
 0003:00000024 0000000C C=DATA     S=.data    G=DGROUP   M=Windows  ACBP=A9
 0003:00000030 00000060 C=DATA     S=.data    G=DGROUP   M=ceflib   ACBP=A9
 0003:00000090 00000009 C=DATA     S=.data    G=DGROUP   M=cefvcl   ACBP=A9
 0003:0000009C 00000030 C=DATA     S=.data    G=DGROUP   M=ceffilescheme ACBP=A9
 0003:000000CC 00000240 C=DATA     S=.data    G=DGROUP   M=Base64EncdDecd ACBP=A9
 0004:00000000 00000004 C=BSS      S=.bss     G=DGROUP   M=SysInit  ACBP=A9
 0004:00000004 00000008 C=BSS      S=.bss     G=DGROUP   M=Windows  ACBP=A9
 0004:0000000C 000001BC C=BSS      S=.bss     G=DGROUP   M=ceflib   ACBP=A9
 0004:000001C8 00000004 C=BSS      S=.bss     G=DGROUP   M=cefvcl   ACBP=A9
 0004:000001CC 00000004 C=BSS      S=.bss     G=DGROUP   M=SysSvc   ACBP=A9
 0004:000001D0 00000004 C=BSS      S=.bss     G=DGROUP   M=UFrmException ACBP=A9
 0004:000001D4 0000000C C=BSS      S=.bss     G=DGROUP   M=UFrmMain ACBP=A9
 0004:000001E0 00000004 C=BSS      S=.bss     G=DGROUP   M=SplashFormImpl ACBP=A9
 0004:000001E4 00000004 C=BSS      S=.bss     G=DGROUP   M=DialogsImpl ACBP=A9
 0004:000001E8 00000008 C=BSS      S=.bss     G=DGROUP   M=UPluginMgr ACBP=A9
 0004:000001F0 00000004 C=BSS      S=.bss     G=DGROUP   M=EncdDecdImpl ACBP=A9
 0004:000001F4 00000004 C=BSS      S=.bss     G=DGROUP   M=ProgressFormImpl ACBP=A9
 0004:000001F8 00000004 C=BSS      S=.bss     G=DGROUP   M=SysInfoImpl ACBP=A9
 0004:000001FC 0000000C C=BSS      S=.bss     G=DGROUP   M=RunOnce  ACBP=A9


  Address             Publics by Name

 0002:00000098       ActnList.ActnList
 0001:00000A20       ActnList.Finalization
 0002:00000158       AppEvnts.AppEvnts
 0001:000010A0       AppEvnts.Finalization
 0002:00000A40       AxCtrls.AxCtrls
 0001:0002D0EC       AxCtrls.Finalization
 0001:000358A8       Base64EncdDecd.DecodePacket
 0001:00035AFC       Base64EncdDecd.DecodeStream
 0001:00035C28       Base64EncdDecd.DecodeString
 0003:0000010C       Base64EncdDecd.DecodeTable
 0001:00035824       Base64EncdDecd.EncodePacket
 0001:00035930       Base64EncdDecd.EncodeStream
 0001:00035B8C       Base64EncdDecd.EncodeString
 0003:000000CC       Base64EncdDecd.EncodeTable
 0001:00035A64       Base64EncdDecd.ReadInput
 0001:00035A08       Base64EncdDecd.SkipWhite
 0002:000001DC       Buttons.Buttons
 0001:0001BE20       Buttons.Finalization
 0001:0001BE18       Buttons.TBitBtn.GetGlyph
 0002:0000020C       CardManage.CardManage
 0001:0001BE70       CardManage.Finalization
 0001:0001BE68       CardManage.TCardManage.Destory
 0001:0001C7F4       ceffilescheme..TFileInfo
 0001:0001C510       ceffilescheme..TFileScheme
 0001:0001C6F8       ceffilescheme.Escape
 0001:0001CE94       ceffilescheme.FileSortCompare
 0001:0001CEE0       ceffilescheme.HTTPDecode
 0001:0001D240       ceffilescheme.OutPut
 0001:0001D2BC       ceffilescheme.OutputUTF8
 0001:0001D01C       ceffilescheme.ParseFileUrl
 0003:0000009C       ceffilescheme.s
 0001:0001CA04       ceffilescheme.TFileInfo.Create
 0001:0001CD60       ceffilescheme.TFileInfo.Display
 0001:0001CCF8       ceffilescheme.TFileInfo.DisplayDate
 0001:0001CA70       ceffilescheme.TFileInfo.DisplaySize
 0001:0001D170       ceffilescheme.TFileScheme.Cancel
 0001:0001D17C       ceffilescheme.TFileScheme.Create
 0001:0001D1C8       ceffilescheme.TFileScheme.Destroy
 0001:0001D200       ceffilescheme.TFileScheme.GetResponseHeaders
 0001:0001D338       ceffilescheme.TFileScheme.ProcessRequest
 0001:0001DB40       ceffilescheme.TFileScheme.ReadResponse
 0001:00016228       cefgui..TChromiumFontOptions
 0001:000153F0       cefgui..TChromiumOptions
 0001:00016760       cefgui..TCustomClientHandler
 0001:00016E38       cefgui..TCustomDisplayHandler
 0001:00017974       cefgui..TCustomDragHandler
 0001:000174F0       cefgui..TCustomFindHandler
 0001:00016F6C       cefgui..TCustomFocusHandler
 0001:00017A88       cefgui..TCustomGeolocationHandler
 0001:00017600       cefgui..TCustomJsDialogHandler
 0001:00017088       cefgui..TCustomKeyboardHandler
 0001:00016AC8       cefgui..TCustomLifeSpanHandler
 0001:00016BF0       cefgui..TCustomLoadHandler
 0001:000171A0       cefgui..TCustomMenuHandler
 0001:000172B8       cefgui..TCustomPermissionHandler
 0001:000173D8       cefgui..TCustomPrintHandler
 0001:00017844       cefgui..TCustomRenderHandler
 0001:00016D08       cefgui..TCustomRequestHandler
 0001:00017720       cefgui..TCustomV8ContextHandler
 0001:00017BB4       cefgui..TCustomZoomHandler
 0001:00017CD4       cefgui.TChromiumFontOptions.Create
 0001:00017D58       cefgui.TCustomClientHandler.Create
 0001:00017F88       cefgui.TCustomClientHandler.Disconnect
 0001:00018014       cefgui.TCustomClientHandler.GetDisplayHandler
 0001:0001802C       cefgui.TCustomClientHandler.GetDragHandler
 0001:00018044       cefgui.TCustomClientHandler.GetFindHandler
 0001:0001805C       cefgui.TCustomClientHandler.GetFocusHandler
 0001:00018074       cefgui.TCustomClientHandler.GetGeolocationHandler
 0001:000180BC       cefgui.TCustomClientHandler.GetJsdialogHandler
 0001:000180D4       cefgui.TCustomClientHandler.GetKeyboardHandler
 0001:000180EC       cefgui.TCustomClientHandler.GetLifeSpanHandler
 0001:00018104       cefgui.TCustomClientHandler.GetLoadHandler
 0001:0001811C       cefgui.TCustomClientHandler.GetMenuHandler
 0001:00018134       cefgui.TCustomClientHandler.GetPermissionHandler
 0001:0001814C       cefgui.TCustomClientHandler.GetPrintHandler
 0001:00018164       cefgui.TCustomClientHandler.GetRenderHandler
 0001:0001817C       cefgui.TCustomClientHandler.GetRequestHandler
 0001:0001808C       cefgui.TCustomClientHandler.GetV8ContextHandler
 0001:000180A4       cefgui.TCustomClientHandler.GetZoomHandler
 0001:00018444       cefgui.TCustomDisplayHandler.Create
 0001:0001848C       cefgui.TCustomDisplayHandler.OnAddressChange
 0001:000184A8       cefgui.TCustomDisplayHandler.OnConsoleMessage
 0001:000184C8       cefgui.TCustomDisplayHandler.OnContentsSizeChange
 0001:000184E8       cefgui.TCustomDisplayHandler.OnFaviconUrlChange
 0001:00018504       cefgui.TCustomDisplayHandler.OnNavStateChange
 0001:00018520       cefgui.TCustomDisplayHandler.OnStatusMessage
 0001:0001853C       cefgui.TCustomDisplayHandler.OnTitleChange
 0001:00018550       cefgui.TCustomDisplayHandler.OnTooltip
 0001:00018B04       cefgui.TCustomDragHandler.Create
 0001:00018B4C       cefgui.TCustomDragHandler.OnDragEnter
 0001:00018B70       cefgui.TCustomDragHandler.OnDragStart
 0001:00018828       cefgui.TCustomFindHandler.Create
 0001:00018870       cefgui.TCustomFindHandler.OnFindResult
 0001:00018564       cefgui.TCustomFocusHandler.Create
 0001:000185AC       cefgui.TCustomFocusHandler.OnFocusedNodeChanged
 0001:000185CC       cefgui.TCustomFocusHandler.OnSetFocus
 0001:000185E8       cefgui.TCustomFocusHandler.OnTakeFocus
 0001:00018B94       cefgui.TCustomGeolocationHandler.Create
 0001:00018BDC       cefgui.TCustomGeolocationHandler.OnCancelGeolocationPermission
 0001:00018C00       cefgui.TCustomGeolocationHandler.OnRequestGeolocationPermission
 0001:0001889C       cefgui.TCustomJsDialogHandler.Create
 0001:000188E4       cefgui.TCustomJsDialogHandler.OnJsAlert
 0001:00018900       cefgui.TCustomJsDialogHandler.OnJsConfirm
 0001:00018920       cefgui.TCustomJsDialogHandler.OnJsPrompt
 0001:00018604       cefgui.TCustomKeyboardHandler.Create
 0001:0001864C       cefgui.TCustomKeyboardHandler.OnKeyEvent
 0001:00018194       cefgui.TCustomLifeSpanHandler.Create
 0001:00018234       cefgui.TCustomLifeSpanHandler.DoClose
 0001:000181DC       cefgui.TCustomLifeSpanHandler.OnAfterCreated
 0001:000181EC       cefgui.TCustomLifeSpanHandler.OnBeforeClose
 0001:000181FC       cefgui.TCustomLifeSpanHandler.OnBeforePopup
 0001:00018244       cefgui.TCustomLifeSpanHandler.RunModal
 0001:00018254       cefgui.TCustomLoadHandler.Create
 0001:0001829C       cefgui.TCustomLoadHandler.OnLoadEnd
 0001:000182B8       cefgui.TCustomLoadHandler.OnLoadError
 0001:000182DC       cefgui.TCustomLoadHandler.OnLoadStart
 0001:0001867C       cefgui.TCustomMenuHandler.Create
 0001:000186C4       cefgui.TCustomMenuHandler.GetMenuLabel
 0001:000186E8       cefgui.TCustomMenuHandler.OnBeforeMenu
 0001:00018704       cefgui.TCustomMenuHandler.OnMenuAction
 0001:00018720       cefgui.TCustomPermissionHandler.Create
 0001:00018768       cefgui.TCustomPermissionHandler.OnBeforeScriptExtensionLoad
 0001:00018784       cefgui.TCustomPrintHandler.Create
 0001:000187CC       cefgui.TCustomPrintHandler.GetPrintHeaderFooter
 0001:00018810       cefgui.TCustomPrintHandler.GetPrintOptions
 0001:000189D8       cefgui.TCustomRenderHandler.Create
 0001:00018A20       cefgui.TCustomRenderHandler.GetScreenPoint
 0001:00018A4C       cefgui.TCustomRenderHandler.GetScreenRect
 0001:00018A68       cefgui.TCustomRenderHandler.GetViewRect
 0001:00018A84       cefgui.TCustomRenderHandler.OnCursorChange
 0001:00018AA0       cefgui.TCustomRenderHandler.OnPaint
 0001:00018ACC       cefgui.TCustomRenderHandler.OnPopupShow
 0001:00018AE8       cefgui.TCustomRenderHandler.OnPopupSize
 0001:000182EC       cefgui.TCustomRequestHandler.Create
 0001:00018334       cefgui.TCustomRequestHandler.GetAuthCredentials
 0001:00018364       cefgui.TCustomRequestHandler.GetDownloadHandler
 0001:00018388       cefgui.TCustomRequestHandler.OnBeforeBrowse
 0001:000183AC       cefgui.TCustomRequestHandler.OnBeforeResourceLoad
 0001:000183D4       cefgui.TCustomRequestHandler.OnProtocolExecution
 0001:000183F0       cefgui.TCustomRequestHandler.OnResourceRedirect
 0001:00018424       cefgui.TCustomRequestHandler.OnResourceResponse
 0001:00018948       cefgui.TCustomV8ContextHandler.Create
 0001:00018990       cefgui.TCustomV8ContextHandler.OnContextCreated
 0001:000189B4       cefgui.TCustomV8ContextHandler.OnContextReleased
 0001:00018C28       cefgui.TCustomZoomHandler.Create
 0001:00018C70       cefgui.TCustomZoomHandler.OnGetZoomLevel
 0001:00018C94       cefgui.TCustomZoomHandler.OnSetZoomLevel
 0004:0000000C       ceflib..37
 0001:00007BA0       ceflib..ECefException
 0001:00007810       ceflib..TCefAppOwn
 0001:00002610       ceflib..TCefBaseOwn
 0001:000027CC       ceflib..TCefBaseRef
 0001:00002B90       ceflib..TCefBrowserRef
 0001:00004594       ceflib..TCefClientOwn
 0001:000055D4       ceflib..TCefCustomStreamReader
 0001:00004970       ceflib..TCefDisplayHandlerOwn
 0001:00006270       ceflib..TCefDomDocumentRef
 0001:000067D4       ceflib..TCefDomEventListenerOwn
 0001:00006688       ceflib..TCefDomEventRef
 0001:000064EC       ceflib..TCefDomNodeRef
 0001:00005F68       ceflib..TCefDomVisitorOwn
 0001:00006F00       ceflib..TCefDragDataRef
 0001:0000528C       ceflib..TCefDragHandlerOwn
 0001:00006A60       ceflib..TCefFastDomEventListener
 0001:00006040       ceflib..TCefFastDomVisitor
 0001:00007478       ceflib..TCefFastProxyHandler
 0001:00007614       ceflib..TCefFastResourceBundle
 0001:00006CDC       ceflib..TCefFastV8Accessor
 0001:00004EE0       ceflib..TCefFindHandlerOwn
 0001:00004A6C       ceflib..TCefFocusHandlerOwn
 0001:00002E10       ceflib..TCefFrameRef
 0001:00007AA4       ceflib..TCefGeolocationCallbackRef
 0001:0000536C       ceflib..TCefGeolocationHandlerOwn
 0001:00004FBC       ceflib..TCefJsDialogHandlerOwn
 0001:00004B50       ceflib..TCefKeyboardHandlerOwn
 0001:000046A0       ceflib..TCefLifeSpanHandlerOwn
 0001:00004794       ceflib..TCefLoadHandlerOwn
 0001:00004C34       ceflib..TCefMenuHandlerOwn
 0001:00004D18       ceflib..TCefPermissionHandlerOwn
 0001:0000314C       ceflib..TCefPostDataElementRef
 0001:00002F84       ceflib..TCefPostDataRef
 0001:00004E00       ceflib..TCefPrintHandlerOwn
 0001:000071F0       ceflib..TCefProxyHandlerOwn
 0001:00005194       ceflib..TCefRenderHandlerOwn
 0001:00004878       ceflib..TCefRequestHandlerOwn
 0001:00003368       ceflib..TCefRequestRef
 0001:00007348       ceflib..TCefResourceBundleHandlerOwn
 0001:0000697C       ceflib..TCefResponseRef
 0001:00005B10       ceflib..TCefSchemeHandlerCallbackRef
 0001:00005C78       ceflib..TCefSchemeHandlerFactoryOwn
 0001:0000581C       ceflib..TCefSchemeHandlerOwn
 0001:0000794C       ceflib..TCefSchemeRegistrarRef
 0001:00003508       ceflib..TCefStreamReaderRef
 0001:00006C00       ceflib..TCefV8AccessorOwn
 0001:000050A8       ceflib..TCefV8ContextHandlerOwn
 0001:000042EC       ceflib..TCefv8ContextRef
 0001:0000709C       ceflib..TCefV8ExceptionRef
 0001:00005E28       ceflib..TCefv8HandlerOwn
 0001:000044AC       ceflib..TCefv8HandlerRef
 0001:00004148       ceflib..TCefV8StackFrameRef
 0001:00003F54       ceflib..TCefV8StackTraceRef
 0001:00003A4C       ceflib..TCefv8ValueRef
 0001:00005458       ceflib..TCefZoomHandlerOwn
 0001:00007C60       ceflib..TInternalApp
 0001:00008300       ceflib..TSHSyncGetResponseHeaders
 0001:00007E74       ceflib..TSHSyncProcessRequest
 0001:00008090       ceflib..TSHSyncReadResponse
 0003:00000088       ceflib.CefAutoDetectProxySettings
 0001:0000F418       ceflib.CefBrowserCreateSync
 0003:00000034       ceflib.CefCache
 0003:00000074       ceflib.CefContextSafetyImplementation
 0001:0000F464       ceflib.CefDoMessageLoopWork
 0003:00000054       ceflib.CefExtraPluginPaths
 0003:0000007C       ceflib.CefGetDataResource
 0003:00000080       ceflib.CefGetLocalizedString
 0003:00000078       ceflib.CefGetProxyForUrl
 0003:00000050       ceflib.CefGraphicsImplementation
 0003:00000060       ceflib.CefJavaScriptFlags
 0002:00000170       ceflib.ceflib
 0003:00000030       ceflib.CefLibrary
 0001:0000D07C       ceflib.CefLoadLib
 0001:0000CFF8       ceflib.CefLoadLibDefault
 0003:00000040       ceflib.CefLocale
 0003:00000068       ceflib.CefLocalesDirPath
 0003:00000058       ceflib.CefLocalStorageQuota
 0003:00000044       ceflib.CefLogFile
 0003:00000048       ceflib.CefLogSeverity
 0003:0000006C       ceflib.CefPackLoadingDisabled
 0003:0000003C       ceflib.CefProductVersion
 0003:00000084       ceflib.CefRegisterCustomSchemes
 0001:0000F71C       ceflib.CefRegisterExtension
 0001:0000F658       ceflib.CefRegisterSchemeHandlerFactory
 0003:0000004C       ceflib.CefReleaseDCheckEnabled
 0003:00000064       ceflib.CefResourcesDirPath
 0003:0000005C       ceflib.CefSessionStorageQuota
 0001:0000F478       ceflib.CefShutDown
 0001:0000F4A0       ceflib.CefString
 0001:0000F500       ceflib.CefString
 0001:0000F528       ceflib.CefStringAlloc
 0001:0000F608       ceflib.CefStringClearAndGet
 0001:0000F628       ceflib.CefStringFreeAndGet
 0001:0000F5A0       ceflib.CefStringSet
 0001:000085B4       ceflib.CefTimeToDateTime
 0001:0000853C       ceflib.CefTimeToSystemTime
 0003:00000070       ceflib.CefUncaughtExceptionStackSize
 0003:00000038       ceflib.CefUserAgent
 0004:00000100       ceflib.cef_add_cross_origin_whitelist_entry
 0001:0000B51C       ceflib.cef_app_get_proxy_handler
 0001:0000B57C       ceflib.cef_app_get_resource_bundle_handler
 0001:0000B4C0       ceflib.cef_app_on_register_custom_schemes
 0001:00008624       ceflib.cef_base_add_ref
 0001:00008654       ceflib.cef_base_get_refct
 0001:0000863C       ceflib.cef_base_release
 0004:00000098       ceflib.cef_browser_create
 0004:0000009C       ceflib.cef_browser_create_sync
 0004:000001AC       ceflib.cef_build_revision
 0004:00000108       ceflib.cef_clear_cross_origin_whitelist
 0004:000000FC       ceflib.cef_clear_scheme_handler_factories
 0001:00008788       ceflib.cef_client_get_display_handler
 0001:00008AE8       ceflib.cef_client_get_drag_handler
 0001:00008968       ceflib.cef_client_get_find_handler
 0001:000087E8       ceflib.cef_client_get_focus_handler
 0001:00008B48       ceflib.cef_client_get_geolocation_handler
 0001:000089C8       ceflib.cef_client_get_jsdialog_handler
 0001:00008848       ceflib.cef_client_get_keyboard_handler
 0001:00008668       ceflib.cef_client_get_life_span_handler
 0001:000086C8       ceflib.cef_client_get_load_handler
 0001:000088A8       ceflib.cef_client_get_menu_handler
 0001:00008908       ceflib.cef_client_get_print_handler
 0001:00008A88       ceflib.cef_client_get_render_handler
 0001:00008728       ceflib.cef_client_get_request_handler
 0001:00008A28       ceflib.cef_client_get_v8context_handler
 0001:00008BA8       ceflib.cef_client_get_zoom_handler
 0004:000001B4       ceflib.cef_cookie_manager_create_manager
 0004:000001B0       ceflib.cef_cookie_manager_get_global_manager
 0004:0000011C       ceflib.cef_create_url
 0004:0000010C       ceflib.cef_currently_on
 0001:00009788       ceflib.cef_display_handler_on_address_change
 0001:00009B34       ceflib.cef_display_handler_on_console_message
 0001:0000981C       ceflib.cef_display_handler_on_contents_size_change
 0001:00009918       ceflib.cef_display_handler_on_favicon_urlchange
 0001:0000971C       ceflib.cef_display_handler_on_nav_state_change
 0001:00009AB8       ceflib.cef_display_handler_on_status_message
 0001:000098A0       ceflib.cef_display_handler_on_title_change
 0001:00009A14       ceflib.cef_display_handler_on_tooltip
 0001:0000B190       ceflib.cef_dom_event_listener_handle_event
 0001:0000B134       ceflib.cef_dom_visitor_visite
 0004:000000A0       ceflib.cef_do_message_loop_work
 0001:0000A9E4       ceflib.cef_drag_handler_on_drag_enter
 0001:0000A95C       ceflib.cef_drag_handler_on_drag_start
 0001:0000A1B0       ceflib.cef_find_handler_on_find_result
 0001:00009C9C       ceflib.cef_focus_handler_on_focused_node_changed
 0001:00009C34       ceflib.cef_focus_handler_on_set_focus
 0001:00009BD0       ceflib.cef_focus_handler_on_take_focus
 0001:00008CA0       ceflib.cef_geolocation_handler_on_cancel_geolocation_permission
 0001:00008C08       ceflib.cef_geolocation_handler_on_request_geolocation_permission
 0004:000001C4       ceflib.cef_get_geolocation
 0004:000001B8       ceflib.cef_get_web_plugin_count
 0004:000001BC       ceflib.cef_get_web_plugin_info
 0004:000001C0       ceflib.cef_get_web_plugin_info_byname
 0004:000000B0       ceflib.cef_initialize
 0001:0000A22C       ceflib.cef_jsdialog_handler_on_jsalert
 0001:0000A2C8       ceflib.cef_jsdialog_handler_on_jsconfirm
 0001:0000A380       ceflib.cef_jsdialog_handler_on_jsprompt
 0001:00009D38       ceflib.cef_keyboard_handler_on_key_event
 0001:00008F0C       ceflib.cef_life_span_handler_do_close
 0001:00008DF0       ceflib.cef_life_span_handler_on_after_created
 0001:00008E4C       ceflib.cef_life_span_handler_on_before_close
 0001:00008D1C       ceflib.cef_life_span_handler_on_before_popup
 0001:00008EA8       ceflib.cef_life_span_handler_run_modal
 0001:00008FEC       ceflib.cef_load_handler_on_load_end
 0001:0000906C       ceflib.cef_load_handler_on_load_error
 0001:00008F70       ceflib.cef_load_handler_on_load_start
 0001:00009E20       ceflib.cef_menu_handler_get_menu_label
 0001:00009DB8       ceflib.cef_menu_handler_on_before_menu
 0001:00009EA8       ceflib.cef_menu_handler_on_menu_action
 0004:00000118       ceflib.cef_parse_url
 0001:00009F10       ceflib.cef_permission_handler_on_before_script_extension_load
 0004:00000124       ceflib.cef_post_data_create
 0004:00000128       ceflib.cef_post_data_element_create
 0004:00000114       ceflib.cef_post_delayed_task
 0004:00000110       ceflib.cef_post_task
 0001:0000A014       ceflib.cef_print_handler_get_print_header_footer
 0001:00009FAC       ceflib.cef_print_handler_get_print_options
 0001:0000B3A0       ceflib.cef_proxy_handler_get_proxy_for_url
 0004:000000A8       ceflib.cef_quit_message_loop
 0001:0000AAD4       ceflib.cef_read_handler_eof
 0001:0000AA6C       ceflib.cef_read_handler_read
 0001:0000AA8C       ceflib.cef_read_handler_seek
 0001:0000AAAC       ceflib.cef_read_handler_tell
 0004:000000F4       ceflib.cef_register_extension
 0004:000000F8       ceflib.cef_register_scheme_handler_factory
 0004:00000104       ceflib.cef_remove_cross_origin_whitelist_entry
 0001:0000A758       ceflib.cef_render_handler_get_screen_point
 0001:0000A6F0       ceflib.cef_render_handler_get_screen_rect
 0001:0000A688       ceflib.cef_render_handler_get_view_rect
 0001:0000A8FC       ceflib.cef_render_handler_on_cursor_change
 0001:0000A890       ceflib.cef_render_handler_on_paint
 0001:0000A7CC       ceflib.cef_render_handler_on_popup_show
 0001:0000A830       ceflib.cef_render_handler_on_popup_size
 0004:00000120       ceflib.cef_request_create
 0001:00009634       ceflib.cef_request_handler_get_auth_credentials
 0001:00009530       ceflib.cef_request_handler_get_download_handler
 0001:00009130       ceflib.cef_request_handler_on_before_browse
 0001:000091DC       ceflib.cef_request_handler_on_before_resource_load
 0001:0000948C       ceflib.cef_request_handler_on_protocol_execution
 0001:00009328       ceflib.cef_request_handler_on_resource_redirect
 0001:000093C4       ceflib.cef_request_handler_on_resource_response
 0001:0000B498       ceflib.cef_resource_bundle_handler_get_data_resource
 0001:0000B414       ceflib.cef_resource_bundle_handler_get_localized_string
 0004:000000A4       ceflib.cef_run_message_loop
 0001:0000AD00       ceflib.cef_scheme_handler_cancel
 0001:0000AAF4       ceflib.cef_scheme_handler_factory_create
 0001:0000AF20       ceflib.cef_scheme_handler_get_response_headers
 0001:0000AE50       ceflib.cef_scheme_handler_get_response_headers_sync
 0001:0000ABA8       ceflib.cef_scheme_handler_process_request
 0001:0000AC2C       ceflib.cef_scheme_handler_process_request_sync
 0001:0000AD14       ceflib.cef_scheme_handler_read_response
 0001:0000AD84       ceflib.cef_scheme_handler_read_response_sync
 0004:000000AC       ceflib.cef_set_osmodal_loop
 0004:000000B4       ceflib.cef_shutdown
 0004:00000130       ceflib.cef_stream_reader_create_for_data
 0004:0000012C       ceflib.cef_stream_reader_create_for_file
 0004:00000134       ceflib.cef_stream_reader_create_for_handler
 0004:00000138       ceflib.cef_stream_writer_create_for_file
 0004:0000013C       ceflib.cef_stream_writer_create_for_handler
 0004:00000070       ceflib.cef_string_ascii_to_utf16
 0004:0000006C       ceflib.cef_string_ascii_to_wide
 0004:0000002C       ceflib.cef_string_clear
 0004:00000074       ceflib.cef_string_from_ascii
 0004:00000060       ceflib.cef_string_from_utf16
 0004:00000058       ceflib.cef_string_from_utf8
 0004:00000068       ceflib.cef_string_from_wide
 0004:000000D8       ceflib.cef_string_list_alloc
 0004:000000E4       ceflib.cef_string_list_append
 0004:000000E8       ceflib.cef_string_list_clear
 0004:000000F0       ceflib.cef_string_list_copy
 0004:000000EC       ceflib.cef_string_list_free
 0004:000000DC       ceflib.cef_string_list_size
 0004:000000E0       ceflib.cef_string_list_value
 0004:000000B8       ceflib.cef_string_map_alloc
 0004:000000CC       ceflib.cef_string_map_append
 0004:000000D0       ceflib.cef_string_map_clear
 0004:000000C0       ceflib.cef_string_map_find
 0004:000000D4       ceflib.cef_string_map_free
 0004:000000C4       ceflib.cef_string_map_key
 0004:000000BC       ceflib.cef_string_map_size
 0004:000000C8       ceflib.cef_string_map_value
 0004:00000188       ceflib.cef_string_multimap_alloc
 0004:000001A0       ceflib.cef_string_multimap_append
 0004:000001A4       ceflib.cef_string_multimap_clear
 0004:00000194       ceflib.cef_string_multimap_enumerate
 0004:00000190       ceflib.cef_string_multimap_find_count
 0004:000001A8       ceflib.cef_string_multimap_free
 0004:00000198       ceflib.cef_string_multimap_key
 0004:0000018C       ceflib.cef_string_multimap_size
 0004:0000019C       ceflib.cef_string_multimap_value
 0004:0000001C       ceflib.cef_string_set
 0004:0000005C       ceflib.cef_string_to_utf16
 0004:00000054       ceflib.cef_string_to_utf8
 0004:00000064       ceflib.cef_string_to_wide
 0004:00000084       ceflib.cef_string_userfree_alloc
 0004:00000094       ceflib.cef_string_userfree_free
 0004:00000080       ceflib.cef_string_userfree_utf16_alloc
 0004:00000090       ceflib.cef_string_userfree_utf16_free
 0004:0000007C       ceflib.cef_string_userfree_utf8_alloc
 0004:0000008C       ceflib.cef_string_userfree_utf8_free
 0004:00000078       ceflib.cef_string_userfree_wide_alloc
 0004:00000088       ceflib.cef_string_userfree_wide_free
 0004:00000028       ceflib.cef_string_utf16_clear
 0004:00000038       ceflib.cef_string_utf16_cmp
 0001:00008520       ceflib.cef_string_utf16_copy
 0004:00000018       ceflib.cef_string_utf16_set
 0004:00000050       ceflib.cef_string_utf16_to_utf8
 0004:00000048       ceflib.cef_string_utf16_to_wide
 0004:00000024       ceflib.cef_string_utf8_clear
 0004:00000034       ceflib.cef_string_utf8_cmp
 0004:00000014       ceflib.cef_string_utf8_set
 0004:0000004C       ceflib.cef_string_utf8_to_utf16
 0004:00000040       ceflib.cef_string_utf8_to_wide
 0004:00000020       ceflib.cef_string_wide_clear
 0004:00000030       ceflib.cef_string_wide_cmp
 0004:00000010       ceflib.cef_string_wide_set
 0004:00000044       ceflib.cef_string_wide_to_utf16
 0004:0000003C       ceflib.cef_string_wide_to_utf8
 0004:00000140       ceflib.cef_v8context_get_current_context
 0004:00000144       ceflib.cef_v8context_get_entered_context
 0004:00000148       ceflib.cef_v8context_in_context
 0004:00000178       ceflib.cef_v8stack_trace_get_current
 0004:00000170       ceflib.cef_v8value_create_array
 0004:00000154       ceflib.cef_v8value_create_bool
 0004:00000164       ceflib.cef_v8value_create_date
 0004:00000160       ceflib.cef_v8value_create_double
 0004:00000174       ceflib.cef_v8value_create_function
 0004:00000158       ceflib.cef_v8value_create_int
 0004:00000150       ceflib.cef_v8value_create_null
 0004:0000016C       ceflib.cef_v8value_create_object
 0004:00000168       ceflib.cef_v8value_create_string
 0004:0000015C       ceflib.cef_v8value_create_uint
 0004:0000014C       ceflib.cef_v8value_create_undefined
 0001:0000B1EC       ceflib.cef_v8_accessor_get
 0001:0000B2F0       ceflib.cef_v8_accessor_put
 0001:0000A47C       ceflib.cef_v8_context_handler_on_context_created
 0001:0000A518       ceflib.cef_v8_context_handler_on_context_released
 0001:0000A5B4       ceflib.cef_v8_context_handler_on_uncaught_exception
 0001:0000AFA8       ceflib.cef_v8_handler_execute
 0004:0000017C       ceflib.cef_web_urlrequest_create
 0004:00000180       ceflib.cef_xml_reader_create
 0004:00000184       ceflib.cef_zip_reader_create
 0001:0000B5DC       ceflib.cef_zoom_handler_on_get_zoom_level
 0001:0000B660       ceflib.cef_zoom_handler_on_set_zoom_level
 0001:000085EC       ceflib.DateTimeToCefTime
 0001:00012B94       ceflib.Finalization
 0003:0000008C       ceflib.LibHandle
 0001:0000857C       ceflib.SystemTimeToCefTime
 0001:00007E6C       ceflib.SystemTimeToTzSpecificLocalTime
 0001:000127B8       ceflib.TCefAppOwn.Create
 0001:0000B6E4       ceflib.TCefBaseOwn.CreateData
 0001:0000B768       ceflib.TCefBaseOwn.Destroy
 0001:0000B7C0       ceflib.TCefBaseOwn.Lock
 0001:0000B7D0       ceflib.TCefBaseOwn.Unlock
 0001:0000B7A8       ceflib.TCefBaseOwn.Wrap
 0001:0000B7E0       ceflib.TCefBaseRef.Create
 0001:0000B8E8       ceflib.TCefBaseRef.Destroy
 0001:0000B920       ceflib.TCefBaseRef.UnWrap
 0001:0000B96C       ceflib.TCefBaseRef.Wrap
 0001:0000B984       ceflib.TCefBrowserRef.CanGoBack
 0001:0000B99C       ceflib.TCefBrowserRef.CanGoForward
 0001:0000B9B4       ceflib.TCefBrowserRef.ClearHistory
 0001:0000B9C0       ceflib.TCefBrowserRef.CloseBrowser
 0001:0000B9CC       ceflib.TCefBrowserRef.CloseDevTools
 0001:0000B9D8       ceflib.TCefBrowserRef.Find
 0001:0000BB50       ceflib.TCefBrowserRef.GetClient
 0001:0000BA18       ceflib.TCefBrowserRef.GetFocusedFrame
 0001:0000BA3C       ceflib.TCefBrowserRef.GetFrame
 0001:0000BA78       ceflib.TCefBrowserRef.GetFrameNames
 0001:0000BB74       ceflib.TCefBrowserRef.GetIdentifier
 0001:0000BB80       ceflib.TCefBrowserRef.GetImage
 0001:0000BBB4       ceflib.TCefBrowserRef.GetMainFrame
 0001:0000BBD8       ceflib.TCefBrowserRef.GetOpenerWindowHandle
 0001:0000BBE4       ceflib.TCefBrowserRef.GetSize
 0001:0000BC18       ceflib.TCefBrowserRef.GetWindowHandle
 0001:0000BC24       ceflib.TCefBrowserRef.GetZoomLevel
 0001:0000BC3C       ceflib.TCefBrowserRef.GoBack
 0001:0000BC48       ceflib.TCefBrowserRef.GoForward
 0001:0000BC54       ceflib.TCefBrowserRef.HasDocument
 0001:0000BC6C       ceflib.TCefBrowserRef.HidePopup
 0001:0000BC7C       ceflib.TCefBrowserRef.Invalidate
 0001:0000BC8C       ceflib.TCefBrowserRef.IsPopup
 0001:0000BCA4       ceflib.TCefBrowserRef.IsPopupVisible
 0001:0000BCC0       ceflib.TCefBrowserRef.IsWindowRenderingDisabled
 0001:0000BCD8       ceflib.TCefBrowserRef.ParentWindowWillClose
 0001:0000BCE4       ceflib.TCefBrowserRef.Reload
 0001:0000BCF0       ceflib.TCefBrowserRef.ReloadIgnoreCache
 0001:0000BCFC       ceflib.TCefBrowserRef.SendCaptureLostEvent
 0001:0000BD0C       ceflib.TCefBrowserRef.SendFocusEvent
 0001:0000BD20       ceflib.TCefBrowserRef.SendKeyEvent
 0001:0000BD3C       ceflib.TCefBrowserRef.SendMouseClickEvent
 0001:0000BD60       ceflib.TCefBrowserRef.SendMouseMoveEvent
 0001:0000BD7C       ceflib.TCefBrowserRef.SendMouseWheelEvent
 0001:0000BD9C       ceflib.TCefBrowserRef.SetFocus
 0001:0000BDAC       ceflib.TCefBrowserRef.SetSize
 0001:0000BDC8       ceflib.TCefBrowserRef.SetZoomLevel
 0001:0000BDDC       ceflib.TCefBrowserRef.ShowDevTools
 0001:0000BDE8       ceflib.TCefBrowserRef.StopFinding
 0001:0000BDF8       ceflib.TCefBrowserRef.StopLoad
 0001:0000BE04       ceflib.TCefBrowserRef.UnWrap
 0001:00011990       ceflib.TCefClientOwn.Create
 0001:00011A4C       ceflib.TCefClientOwn.GetDisplayHandler
 0001:00011A5C       ceflib.TCefClientOwn.GetDragHandler
 0001:00011A6C       ceflib.TCefClientOwn.GetFindHandler
 0001:00011A7C       ceflib.TCefClientOwn.GetFocusHandler
 0001:00011A8C       ceflib.TCefClientOwn.GetGeolocationHandler
 0001:00011ABC       ceflib.TCefClientOwn.GetJsdialogHandler
 0001:00011ACC       ceflib.TCefClientOwn.GetKeyboardHandler
 0001:00011ADC       ceflib.TCefClientOwn.GetLifeSpanHandler
 0001:00011AEC       ceflib.TCefClientOwn.GetLoadHandler
 0001:00011AFC       ceflib.TCefClientOwn.GetMenuHandler
 0001:00011B0C       ceflib.TCefClientOwn.GetPermissionHandler
 0001:00011B1C       ceflib.TCefClientOwn.GetPrintHandler
 0001:00011B2C       ceflib.TCefClientOwn.GetRenderHandler
 0001:00011B3C       ceflib.TCefClientOwn.GetRequestHandler
 0001:00011A9C       ceflib.TCefClientOwn.GetV8ContextHandler
 0001:00011AAC       ceflib.TCefClientOwn.GetZoomHandler
 0001:0000C4E0       ceflib.TCefCustomStreamReader.Create
 0001:0000C470       ceflib.TCefCustomStreamReader.Create
 0001:0000C534       ceflib.TCefCustomStreamReader.Destroy
 0001:0000C56C       ceflib.TCefCustomStreamReader.Eof
 0001:0000C5DC       ceflib.TCefCustomStreamReader.Read
 0001:0000C644       ceflib.TCefCustomStreamReader.Seek
 0001:0000C6A0       ceflib.TCefCustomStreamReader.Tell
 0001:00011D1C       ceflib.TCefDisplayHandlerOwn.Create
 0001:00011DA0       ceflib.TCefDisplayHandlerOwn.OnAddressChange
 0001:00011DA8       ceflib.TCefDisplayHandlerOwn.OnConsoleMessage
 0001:00011DB4       ceflib.TCefDisplayHandlerOwn.OnContentsSizeChange
 0001:00011DBC       ceflib.TCefDisplayHandlerOwn.OnFaviconUrlChange
 0001:00011DC0       ceflib.TCefDisplayHandlerOwn.OnNavStateChange
 0001:00011DC8       ceflib.TCefDisplayHandlerOwn.OnStatusMessage
 0001:00011DD0       ceflib.TCefDisplayHandlerOwn.OnTitleChange
 0001:00011DD4       ceflib.TCefDisplayHandlerOwn.OnTooltip
 0001:00010DA0       ceflib.TCefDomDocumentRef.GetBaseUrl
 0001:00010DC0       ceflib.TCefDomDocumentRef.GetBody
 0001:00010DE4       ceflib.TCefDomDocumentRef.GetCompleteUrl
 0001:00010E18       ceflib.TCefDomDocumentRef.GetDocument
 0001:00010E3C       ceflib.TCefDomDocumentRef.GetElementById
 0001:00010E78       ceflib.TCefDomDocumentRef.GetFocusedNode
 0001:00010E9C       ceflib.TCefDomDocumentRef.GetHead
 0001:00010EC0       ceflib.TCefDomDocumentRef.GetSelectionAsMarkup
 0001:00010EE0       ceflib.TCefDomDocumentRef.GetSelectionAsText
 0001:00010F00       ceflib.TCefDomDocumentRef.GetSelectionEndNode
 0001:00010F24       ceflib.TCefDomDocumentRef.GetSelectionEndOffset
 0001:00010F30       ceflib.TCefDomDocumentRef.GetSelectionStartNode
 0001:00010F54       ceflib.TCefDomDocumentRef.GetSelectionStartOffset
 0001:00010F60       ceflib.TCefDomDocumentRef.GetTitle
 0001:00010F80       ceflib.TCefDomDocumentRef.GetType
 0001:00010F8C       ceflib.TCefDomDocumentRef.HasSelection
 0001:00010FA4       ceflib.TCefDomDocumentRef.UnWrap
 0001:00011524       ceflib.TCefDomEventListenerOwn.Create
 0001:00011570       ceflib.TCefDomEventListenerOwn.HandleEvent
 0001:00011574       ceflib.TCefDomEventRef.CanBubble
 0001:0001158C       ceflib.TCefDomEventRef.CanCancel
 0001:000115A4       ceflib.TCefDomEventRef.GetCategory
 0001:000115B0       ceflib.TCefDomEventRef.GetCurrentTarget
 0001:000115D4       ceflib.TCefDomEventRef.GetDocument
 0001:000115F8       ceflib.TCefDomEventRef.GetPhase
 0001:00011604       ceflib.TCefDomEventRef.GetTarget
 0001:00011628       ceflib.TCefDomEventRef.GetType
 0001:00011648       ceflib.TCefDomEventRef.UnWrap
 0001:00010FF0       ceflib.TCefDomNodeRef.AddEventListener
 0001:000110A8       ceflib.TCefDomNodeRef.AddEventListenerProc
 0001:00011130       ceflib.TCefDomNodeRef.GetAsMarkup
 0001:00011150       ceflib.TCefDomNodeRef.GetDocument
 0001:00011174       ceflib.TCefDomNodeRef.GetElementAttribute
 0001:000111A8       ceflib.TCefDomNodeRef.GetElementAttributes
 0001:000111C8       ceflib.TCefDomNodeRef.GetElementInnerText
 0001:000111E8       ceflib.TCefDomNodeRef.GetElementTagName
 0001:00011208       ceflib.TCefDomNodeRef.GetFirstChild
 0001:0001122C       ceflib.TCefDomNodeRef.GetFormControlElementType
 0001:0001124C       ceflib.TCefDomNodeRef.GetLastChild
 0001:00011270       ceflib.TCefDomNodeRef.GetName
 0001:00011290       ceflib.TCefDomNodeRef.GetNextSibling
 0001:000112B4       ceflib.TCefDomNodeRef.GetParent
 0001:000112D8       ceflib.TCefDomNodeRef.GetPreviousSibling
 0001:000112FC       ceflib.TCefDomNodeRef.GetType
 0001:00011308       ceflib.TCefDomNodeRef.GetValue
 0001:00011328       ceflib.TCefDomNodeRef.HasChildren
 0001:00011340       ceflib.TCefDomNodeRef.HasElementAttribute
 0001:0001136C       ceflib.TCefDomNodeRef.HasElementAttributes
 0001:00011384       ceflib.TCefDomNodeRef.IsElement
 0001:0001139C       ceflib.TCefDomNodeRef.IsFormControlElement
 0001:000113B4       ceflib.TCefDomNodeRef.IsSame
 0001:00011454       ceflib.TCefDomNodeRef.IsText
 0001:0001146C       ceflib.TCefDomNodeRef.SetElementAttribute
 0001:000114AC       ceflib.TCefDomNodeRef.SetValue
 0001:000114D8       ceflib.TCefDomNodeRef.UnWrap
 0001:00010CF8       ceflib.TCefDomVisitorOwn.Create
 0001:00010D44       ceflib.TCefDomVisitorOwn.visit
 0001:0001228C       ceflib.TCefDragDataRef.GetFileName
 0001:000122AC       ceflib.TCefDragDataRef.GetFileNames
 0001:0001237C       ceflib.TCefDragDataRef.GetFragmentBaseUrl
 0001:0001239C       ceflib.TCefDragDataRef.GetFragmentHtml
 0001:000123BC       ceflib.TCefDragDataRef.GetFragmentText
 0001:000123DC       ceflib.TCefDragDataRef.GetLinkMetadata
 0001:000123FC       ceflib.TCefDragDataRef.GetLinkTitle
 0001:0001241C       ceflib.TCefDragDataRef.GetLinkUrl
 0001:0001243C       ceflib.TCefDragDataRef.IsFile
 0001:00012454       ceflib.TCefDragDataRef.IsFragment
 0001:0001246C       ceflib.TCefDragDataRef.IsLink
 0001:00012484       ceflib.TCefDragDataRef.UnWrap
 0001:000121B0       ceflib.TCefDragHandlerOwn.Create
 0001:00012204       ceflib.TCefDragHandlerOwn.OnDragEnter
 0001:00012210       ceflib.TCefDragHandlerOwn.OnDragStart
 0001:00011694       ceflib.TCefFastDomEventListener.Create
 0001:000116DC       ceflib.TCefFastDomEventListener.HandleEvent
 0001:00010D48       ceflib.TCefFastDomVisitor.Create
 0001:00010D90       ceflib.TCefFastDomVisitor.visit
 0001:00012658       ceflib.TCefFastProxyHandler.Create
 0001:000126A0       ceflib.TCefFastProxyHandler.GetProxyForUrl
 0001:000126BC       ceflib.TCefFastResourceBundle.Create
 0001:00012758       ceflib.TCefFastResourceBundle.GetDataResource
 0001:00012778       ceflib.TCefFastResourceBundle.GetLocalizedString
 0001:000118DC       ceflib.TCefFastV8Accessor.Create
 0001:00011928       ceflib.TCefFastV8Accessor.Get
 0001:0001196C       ceflib.TCefFastV8Accessor.Put
 0001:00011FC4       ceflib.TCefFindHandlerOwn.Create
 0001:00012010       ceflib.TCefFindHandlerOwn.OnFindResult
 0001:00011DD8       ceflib.TCefFocusHandlerOwn.Create
 0001:00011E34       ceflib.TCefFocusHandlerOwn.OnFocusedNodeChanged
 0001:00011E3C       ceflib.TCefFocusHandlerOwn.OnSetFocus
 0001:00011E40       ceflib.TCefFocusHandlerOwn.OnTakeFocus
 0001:0000BE50       ceflib.TCefFrameRef.Copy
 0001:0000BE5C       ceflib.TCefFrameRef.Cut
 0001:0000BE68       ceflib.TCefFrameRef.Del
 0001:0000BE74       ceflib.TCefFrameRef.ExecuteJavaScript
 0001:0000BEB4       ceflib.TCefFrameRef.GetBrowser
 0001:0000BED8       ceflib.TCefFrameRef.GetIdentifier
 0001:0000BEF8       ceflib.TCefFrameRef.GetName
 0001:0000BF18       ceflib.TCefFrameRef.GetParent
 0001:0000BF3C       ceflib.TCefFrameRef.GetSource
 0001:0000BF5C       ceflib.TCefFrameRef.getText
 0001:0000BF7C       ceflib.TCefFrameRef.GetUrl
 0001:0000BF9C       ceflib.TCefFrameRef.GetV8Context
 0001:0000BFC0       ceflib.TCefFrameRef.IsFocused
 0001:0000BFD8       ceflib.TCefFrameRef.IsMain
 0001:0000BFF0       ceflib.TCefFrameRef.LoadFile
 0001:0000C0D4       ceflib.TCefFrameRef.LoadRequest
 0001:0000C168       ceflib.TCefFrameRef.LoadStream
 0001:0000C268       ceflib.TCefFrameRef.LoadString
 0001:0000C2A4       ceflib.TCefFrameRef.LoadUrl
 0001:0000C2CC       ceflib.TCefFrameRef.Paste
 0001:0000C2D8       ceflib.TCefFrameRef.Print
 0001:0000C2E4       ceflib.TCefFrameRef.Redo
 0001:0000C2F0       ceflib.TCefFrameRef.SelectAll
 0001:0000C2FC       ceflib.TCefFrameRef.Undo
 0001:0000C424       ceflib.TCefFrameRef.UnWrap
 0001:0000C308       ceflib.TCefFrameRef.ViewSource
 0001:0000C314       ceflib.TCefFrameRef.VisitDom
 0001:0000C3A8       ceflib.TCefFrameRef.VisitDomProc
 0001:00012900       ceflib.TCefGeolocationCallbackRef.Cont
 0001:00012910       ceflib.TCefGeolocationCallbackRef.UnWrap
 0001:000128A0       ceflib.TCefGeolocationHandlerOwn.Create
 0001:000128F8       ceflib.TCefGeolocationHandlerOwn.OnCancelGeolocationPermission
 0001:000128F0       ceflib.TCefGeolocationHandlerOwn.OnRequestGeolocationPermission
 0001:00012018       ceflib.TCefJsDialogHandlerOwn.Create
 0001:00012074       ceflib.TCefJsDialogHandlerOwn.OnJsAlert
 0001:00012080       ceflib.TCefJsDialogHandlerOwn.OnJsConfirm
 0001:0001208C       ceflib.TCefJsDialogHandlerOwn.OnJsPrompt
 0001:00011E44       ceflib.TCefKeyboardHandlerOwn.Create
 0001:00011E90       ceflib.TCefKeyboardHandlerOwn.OnKeyEvent
 0001:00011B4C       ceflib.TCefLifeSpanHandlerOwn.Create
 0001:00011BCC       ceflib.TCefLifeSpanHandlerOwn.DoClose
 0001:00011BB8       ceflib.TCefLifeSpanHandlerOwn.OnAfterCreated
 0001:00011BBC       ceflib.TCefLifeSpanHandlerOwn.OnBeforeClose
 0001:00011BC0       ceflib.TCefLifeSpanHandlerOwn.OnBeforePopup
 0001:00011BD0       ceflib.TCefLifeSpanHandlerOwn.RunModal
 0001:00011BD4       ceflib.TCefLoadHandlerOwn.Create
 0001:00011C30       ceflib.TCefLoadHandlerOwn.OnLoadEnd
 0001:00011C38       ceflib.TCefLoadHandlerOwn.OnLoadError
 0001:00011C44       ceflib.TCefLoadHandlerOwn.OnLoadStart
 0001:00011E9C       ceflib.TCefMenuHandlerOwn.Create
 0001:00011EF8       ceflib.TCefMenuHandlerOwn.GetMenuLabel
 0001:00011F00       ceflib.TCefMenuHandlerOwn.OnBeforeMenu
 0001:00011F04       ceflib.TCefMenuHandlerOwn.OnMenuAction
 0001:00011F08       ceflib.TCefPermissionHandlerOwn.Create
 0001:00011F54       ceflib.TCefPermissionHandlerOwn.OnBeforeScriptExtensionLoad
 0001:0000C998       ceflib.TCefPostDataElementRef.GetBytes
 0001:0000C9A8       ceflib.TCefPostDataElementRef.GetBytesCount
 0001:0000C9B4       ceflib.TCefPostDataElementRef.GetFile
 0001:0000C9D4       ceflib.TCefPostDataElementRef.GetType
 0001:0000C9E0       ceflib.TCefPostDataElementRef.New
 0001:0000CA00       ceflib.TCefPostDataElementRef.SetToBytes
 0001:0000CA10       ceflib.TCefPostDataElementRef.SetToEmpty
 0001:0000CA1C       ceflib.TCefPostDataElementRef.SetToFile
 0001:0000CA44       ceflib.TCefPostDataElementRef.UnWrap
 0001:0000C6F8       ceflib.TCefPostDataRef.AddElement
 0001:0000C790       ceflib.TCefPostDataRef.GetCount
 0001:0000C79C       ceflib.TCefPostDataRef.GetElements
 0001:0000C888       ceflib.TCefPostDataRef.New
 0001:0000C8A8       ceflib.TCefPostDataRef.RemoveElement
 0001:0000C940       ceflib.TCefPostDataRef.RemoveElements
 0001:0000C94C       ceflib.TCefPostDataRef.UnWrap
 0001:00011F60       ceflib.TCefPrintHandlerOwn.Create
 0001:00011FB4       ceflib.TCefPrintHandlerOwn.GetPrintHeaderFooter
 0001:00011FC0       ceflib.TCefPrintHandlerOwn.GetPrintOptions
 0001:000125B8       ceflib.TCefProxyHandlerOwn.Create
 0001:0001210C       ceflib.TCefRenderHandlerOwn.Create
 0001:00012188       ceflib.TCefRenderHandlerOwn.GetScreenPoint
 0001:00012194       ceflib.TCefRenderHandlerOwn.GetScreenRect
 0001:00012198       ceflib.TCefRenderHandlerOwn.GetViewRect
 0001:0001219C       ceflib.TCefRenderHandlerOwn.OnCursorChange
 0001:000121A0       ceflib.TCefRenderHandlerOwn.OnPaint
 0001:000121A8       ceflib.TCefRenderHandlerOwn.OnPopupShow
 0001:000121AC       ceflib.TCefRenderHandlerOwn.OnPopupSize
 0001:00011C48       ceflib.TCefRequestHandlerOwn.Create
 0001:00011CC4       ceflib.TCefRequestHandlerOwn.GetAuthCredentials
 0001:00011CD0       ceflib.TCefRequestHandlerOwn.GetDownloadHandler
 0001:00011CDC       ceflib.TCefRequestHandlerOwn.OnBeforeBrowse
 0001:00011CE8       ceflib.TCefRequestHandlerOwn.OnBeforeResourceLoad
 0001:00011CF4       ceflib.TCefRequestHandlerOwn.OnProtocolExecution
 0001:00011D00       ceflib.TCefRequestHandlerOwn.OnResourceRedirect
 0001:00011D14       ceflib.TCefRequestHandlerOwn.OnResourceResponse
 0001:0000CA90       ceflib.TCefRequestRef.Assign
 0001:0000CB5C       ceflib.TCefRequestRef.GetFirstPartyForCookies
 0001:0000CB7C       ceflib.TCefRequestRef.GetFlags
 0001:0000CB88       ceflib.TCefRequestRef.GetHeaderMap
 0001:0000CBA8       ceflib.TCefRequestRef.GetMethod
 0001:0000CBC8       ceflib.TCefRequestRef.GetPostData
 0001:0000CBEC       ceflib.TCefRequestRef.GetUrl
 0001:0000CC0C       ceflib.TCefRequestRef.New
 0001:0000CC2C       ceflib.TCefRequestRef.SetFirstPartyForCookies
 0001:0000CC54       ceflib.TCefRequestRef.SetFlags
 0001:0000CC64       ceflib.TCefRequestRef.SetHeaderMap
 0001:0000CC84       ceflib.TCefRequestRef.SetMethod
 0001:0000CCAC       ceflib.TCefRequestRef.SetPostData
 0001:0000CD44       ceflib.TCefRequestRef.SetUrl
 0001:0000CD6C       ceflib.TCefRequestRef.UnWrap
 0001:00012604       ceflib.TCefResourceBundleHandlerOwn.Create
 0001:000116FC       ceflib.TCefResponseRef.GetHeader
 0001:00011730       ceflib.TCefResponseRef.GetHeaderMap
 0001:00011750       ceflib.TCefResponseRef.GetMimeType
 0001:00011770       ceflib.TCefResponseRef.GetStatus
 0001:0001177C       ceflib.TCefResponseRef.GetStatusText
 0001:0001179C       ceflib.TCefResponseRef.SetHeaderMap
 0001:000117BC       ceflib.TCefResponseRef.SetMimeType
 0001:000117E4       ceflib.TCefResponseRef.SetStatus
 0001:000117F4       ceflib.TCefResponseRef.SetStatusText
 0001:0001181C       ceflib.TCefResponseRef.UnWrap
 0001:0001221C       ceflib.TCefSchemeHandlerCallbackRef.BytesAvailable
 0001:00012228       ceflib.TCefSchemeHandlerCallbackRef.Cancel
 0001:00012234       ceflib.TCefSchemeHandlerCallbackRef.HeadersAvailable
 0001:00012240       ceflib.TCefSchemeHandlerCallbackRef.UnWrap
 0001:0000F7E8       ceflib.TCefSchemeHandlerFactoryOwn.Create
 0001:0000F844       ceflib.TCefSchemeHandlerFactoryOwn.New
 0001:0000F890       ceflib.TCefSchemeHandlerOwn.Cancel
 0001:0000F898       ceflib.TCefSchemeHandlerOwn.Create
 0001:0000F948       ceflib.TCefSchemeHandlerOwn.GetResponseHeaders
 0001:0000F950       ceflib.TCefSchemeHandlerOwn.ProcessRequest
 0001:0000F954       ceflib.TCefSchemeHandlerOwn.ReadResponse
 0001:00012814       ceflib.TCefSchemeRegistrarRef.AddCustomScheme
 0001:00012854       ceflib.TCefSchemeRegistrarRef.UnWrap
 0001:0000CDB8       ceflib.TCefStreamReaderRef.CreateForCustomStream
 0001:0000CE5C       ceflib.TCefStreamReaderRef.CreateForData
 0001:0000CE88       ceflib.TCefStreamReaderRef.CreateForFile
 0001:0000CEC0       ceflib.TCefStreamReaderRef.CreateForStream
 0001:0000CF44       ceflib.TCefStreamReaderRef.Eof
 0001:0000CF5C       ceflib.TCefStreamReaderRef.Read
 0001:0000CF74       ceflib.TCefStreamReaderRef.Seek
 0001:0000CF8C       ceflib.TCefStreamReaderRef.Tell
 0001:0000CFAC       ceflib.TCefStreamReaderRef.UnWrap
 0001:00011868       ceflib.TCefV8AccessorOwn.Create
 0001:000118BC       ceflib.TCefV8AccessorOwn.Get
 0001:000118D0       ceflib.TCefV8AccessorOwn.Put
 0001:00012098       ceflib.TCefV8ContextHandlerOwn.Create
 0001:000120F4       ceflib.TCefV8ContextHandlerOwn.OnContextCreated
 0001:000120FC       ceflib.TCefV8ContextHandlerOwn.OnContextReleased
 0001:00012104       ceflib.TCefV8ContextHandlerOwn.OnUncaughtException
 0001:00010A44       ceflib.TCefv8ContextRef.Current
 0001:00010A64       ceflib.TCefv8ContextRef.Enter
 0001:00010A7C       ceflib.TCefv8ContextRef.Entered
 0001:00010A9C       ceflib.TCefv8ContextRef.Eval
 0001:00010B6C       ceflib.TCefv8ContextRef.Exit
 0001:00010B84       ceflib.TCefv8ContextRef.GetBrowser
 0001:00010BA8       ceflib.TCefv8ContextRef.GetFrame
 0001:00010BCC       ceflib.TCefv8ContextRef.GetGlobal
 0001:00010BF0       ceflib.TCefv8ContextRef.IsSame
 0001:00010C94       ceflib.TCefv8ContextRef.IsValid
 0001:00010CAC       ceflib.TCefv8ContextRef.UnWrap
 0001:000124D0       ceflib.TCefV8ExceptionRef.GetEndColumn
 0001:000124DC       ceflib.TCefV8ExceptionRef.GetEndPosition
 0001:000124E8       ceflib.TCefV8ExceptionRef.GetLineNumber
 0001:000124F4       ceflib.TCefV8ExceptionRef.GetMessage
 0001:00012514       ceflib.TCefV8ExceptionRef.GetScriptResourceName
 0001:00012534       ceflib.TCefV8ExceptionRef.GetSourceLine
 0001:00012554       ceflib.TCefV8ExceptionRef.GetStartColumn
 0001:00012560       ceflib.TCefV8ExceptionRef.GetStartPosition
 0001:0001256C       ceflib.TCefV8ExceptionRef.UnWrap
 0001:000109EC       ceflib.TCefv8HandlerOwn.Create
 0001:00010A38       ceflib.TCefv8HandlerOwn.Execute
 0001:000107EC       ceflib.TCefv8HandlerRef.Execute
 0001:000109A0       ceflib.TCefv8HandlerRef.UnWrap
 0001:00012B0C       ceflib.TCefV8StackFrameRef.GetColumn
 0001:00012AE0       ceflib.TCefV8StackFrameRef.GetFunctionName
 0001:00012B00       ceflib.TCefV8StackFrameRef.GetLineNumber
 0001:00012AA0       ceflib.TCefV8StackFrameRef.GetScriptName
 0001:00012AC0       ceflib.TCefV8StackFrameRef.GetScriptNameOrSourceUrl
 0001:00012B30       ceflib.TCefV8StackFrameRef.IsConstructor
 0001:00012B18       ceflib.TCefV8StackFrameRef.IsEval
 0001:00012A88       ceflib.TCefV8StackFrameRef.IsValid
 0001:00012B48       ceflib.TCefV8StackFrameRef.UnWrap
 0001:00012A64       ceflib.TCefV8StackTraceRef.Current
 0001:000129E8       ceflib.TCefV8StackTraceRef.GetFrame
 0001:000129DC       ceflib.TCefV8StackTraceRef.GetFrameCount
 0001:000129C4       ceflib.TCefV8StackTraceRef.IsValid
 0001:00012A18       ceflib.TCefV8StackTraceRef.UnWrap
 0001:0000F960       ceflib.TCefv8ValueRef.AdjustExternallyAllocatedMemory
 0001:0000F970       ceflib.TCefv8ValueRef.ClearException
 0001:0000F988       ceflib.TCefv8ValueRef.CreateArray
 0001:0000F9AC       ceflib.TCefv8ValueRef.CreateBool
 0001:0000F9D4       ceflib.TCefv8ValueRef.CreateDate
 0001:0000FA0C       ceflib.TCefv8ValueRef.CreateDouble
 0001:0000FA38       ceflib.TCefv8ValueRef.CreateFunction
 0001:0000FAF4       ceflib.TCefv8ValueRef.CreateInt
 0001:0000FB18       ceflib.TCefv8ValueRef.CreateNull
 0001:0000FB38       ceflib.TCefv8ValueRef.CreateObject
 0001:0000FBDC       ceflib.TCefv8ValueRef.CreateObjectProc
 0001:0000FC60       ceflib.TCefv8ValueRef.CreateString
 0001:0000FC98       ceflib.TCefv8ValueRef.CreateUInt
 0001:0000FCBC       ceflib.TCefv8ValueRef.CreateUndefined
 0001:0000FCDC       ceflib.TCefv8ValueRef.DeleteValueByIndex
 0001:0000FCFC       ceflib.TCefv8ValueRef.DeleteValueByKey
 0001:0000FD28       ceflib.TCefv8ValueRef.ExecuteFunction
 0001:0000FE7C       ceflib.TCefv8ValueRef.ExecuteFunctionWithContext
 0001:00010014       ceflib.TCefv8ValueRef.GetArrayLength
 0001:00010024       ceflib.TCefv8ValueRef.GetBoolValue
 0001:0001003C       ceflib.TCefv8ValueRef.GetDateValue
 0001:00010068       ceflib.TCefv8ValueRef.GetDoubleValue
 0001:00010080       ceflib.TCefv8ValueRef.GetException
 0001:000100A4       ceflib.TCefv8ValueRef.GetExternallyAllocatedMemory
 0001:000100B4       ceflib.TCefv8ValueRef.GetFunctionHandler
 0001:000100DC       ceflib.TCefv8ValueRef.GetFunctionName
 0001:000100FC       ceflib.TCefv8ValueRef.GetIntValue
 0001:00010108       ceflib.TCefv8ValueRef.GetKeys
 0001:000101E8       ceflib.TCefv8ValueRef.GetStringValue
 0001:00010208       ceflib.TCefv8ValueRef.GetUIntValue
 0001:00010214       ceflib.TCefv8ValueRef.GetUserData
 0001:0001023C       ceflib.TCefv8ValueRef.GetValueByIndex
 0001:00010270       ceflib.TCefv8ValueRef.GetValueByKey
 0001:000102AC       ceflib.TCefv8ValueRef.HasException
 0001:000102C4       ceflib.TCefv8ValueRef.HasValueByIndex
 0001:000102E0       ceflib.TCefv8ValueRef.HasValueByKey
 0001:0001030C       ceflib.TCefv8ValueRef.IsArray
 0001:00010324       ceflib.TCefv8ValueRef.IsBool
 0001:0001033C       ceflib.TCefv8ValueRef.IsDate
 0001:00010354       ceflib.TCefv8ValueRef.IsDouble
 0001:0001036C       ceflib.TCefv8ValueRef.IsFunction
 0001:00010384       ceflib.TCefv8ValueRef.IsInt
 0001:0001039C       ceflib.TCefv8ValueRef.IsNull
 0001:000103B4       ceflib.TCefv8ValueRef.IsObject
 0001:000103CC       ceflib.TCefv8ValueRef.IsSame
 0001:0001046C       ceflib.TCefv8ValueRef.IsString
 0001:00010484       ceflib.TCefv8ValueRef.IsUInt
 0001:0001049C       ceflib.TCefv8ValueRef.IsUndefined
 0001:000104B4       ceflib.TCefv8ValueRef.IsUserCreated
 0001:000104CC       ceflib.TCefv8ValueRef.IsValid
 0001:000104E4       ceflib.TCefv8ValueRef.SetRethrowExceptions
 0001:00010504       ceflib.TCefv8ValueRef.SetUserData
 0001:000105A8       ceflib.TCefv8ValueRef.SetValueByAccessor
 0001:000105E4       ceflib.TCefv8ValueRef.SetValueByIndex
 0001:00010690       ceflib.TCefv8ValueRef.SetValueByKey
 0001:00010750       ceflib.TCefv8ValueRef.UnWrap
 0001:0001079C       ceflib.TCefv8ValueRef.WillRethrowExceptions
 0001:0001295C       ceflib.TCefZoomHandlerOwn.Create
 0001:000129AC       ceflib.TCefZoomHandlerOwn.OnGetZoomLevel
 0001:000129B8       ceflib.TCefZoomHandlerOwn.OnSetZoomLevel
 0001:00007D94       ceflib.TInternalApp.Create
 0001:00007E1C       ceflib.TInternalApp.GetProxyHandler
 0001:00007E34       ceflib.TInternalApp.GetResourceBundleHandler
 0001:00007E4C       ceflib.TInternalApp.OnRegisterCustomSchemes
 0001:000084C8       ceflib.TSHSyncGetResponseHeaders.Create
 0001:000084AC       ceflib.TSHSyncGetResponseHeaders.Execute
 0001:00008040       ceflib.TSHSyncProcessRequest.Create
 0001:00008024       ceflib.TSHSyncProcessRequest.Execute
 0001:000082A8       ceflib.TSHSyncReadResponse.Create
 0001:00008284       ceflib.TSHSyncReadResponse.Execute
 0001:00007E64       ceflib.TzSpecificLocalTimeToSystemTime
 0004:000001C8       cefvcl..4
 0001:00019A48       cefvcl..TChromium
 0001:0001913C       cefvcl..TCustomChromium
 0001:0001A6DC       cefvcl..TVCLClientHandler
 0003:00000090       cefvcl.CefInstances
 0003:00000094       cefvcl.CefTimer
 0002:00000188       cefvcl.cefvcl
 0001:0001BD28       cefvcl.Finalization
 0003:00000098       cefvcl.looping
 0001:0001A930       cefvcl.TCustomChromium.Create
 0001:0001AA04       cefvcl.TCustomChromium.CreateBrowser
 0001:0001AB20       cefvcl.TCustomChromium.CreateWindowHandle
 0001:0001AB38       cefvcl.TCustomChromium.Destroy
 0001:0001AC04       cefvcl.TCustomChromium.doOnAddressChange
 0001:0001AC30       cefvcl.TCustomChromium.doOnAfterCreated
 0001:0001AC54       cefvcl.TCustomChromium.doOnAuthCredentials
 0001:0001ACA0       cefvcl.TCustomChromium.doOnBeforeBrowse
 0001:0001ADC8       cefvcl.TCustomChromium.doOnBeforeClose
 0001:0001ACE4       cefvcl.TCustomChromium.doOnBeforeMenu
 0001:0001AD18       cefvcl.TCustomChromium.doOnBeforePopup
 0001:0001AD58       cefvcl.TCustomChromium.doOnBeforeResourceLoad
 0001:0001AD9C       cefvcl.TCustomChromium.doOnBeforeScriptExtensionLoad
 0001:0001B3B4       cefvcl.TCustomChromium.doOnCancelGeolocationPermission
 0001:0001B3E0       cefvcl.TCustomChromium.doOnClose
 0001:0001ADFC       cefvcl.TCustomChromium.doOnConsoleMessage
 0001:0001AE38       cefvcl.TCustomChromium.doOnContentsSizeChange
 0001:0001AE68       cefvcl.TCustomChromium.doOnContextCreated
 0001:0001AE94       cefvcl.TCustomChromium.doOnContextReleased
 0001:0001B264       cefvcl.TCustomChromium.doOnCursorChange
 0001:0001B268       cefvcl.TCustomChromium.doOnDragEnter
 0001:0001B2A0       cefvcl.TCustomChromium.doOnDragStart
 0001:0001AF04       cefvcl.TCustomChromium.doOnFaviconUrlChange
 0001:0001AF28       cefvcl.TCustomChromium.doOnFindResult
 0001:0001AF70       cefvcl.TCustomChromium.doOnFocusedNodeChanged
 0001:0001AEC0       cefvcl.TCustomChromium.doOnGetDownloadHandler
 0001:0001AF9C       cefvcl.TCustomChromium.doOnGetMenuLabel
 0001:0001AFD4       cefvcl.TCustomChromium.doOnGetScreenPoint
 0001:0001AFE0       cefvcl.TCustomChromium.doOnGetScreenRect
 0001:0001AFE4       cefvcl.TCustomChromium.doOnGetViewRect
 0001:0001AFE8       cefvcl.TCustomChromium.doOnGetZoomLevel
 0001:0001B020       cefvcl.TCustomChromium.doOnJsAlert
 0001:0001B058       cefvcl.TCustomChromium.doOnJsBinding
 0001:0001B090       cefvcl.TCustomChromium.doOnJsConfirm
 0001:0001B0CC       cefvcl.TCustomChromium.doOnJsPrompt
 0001:0001B110       cefvcl.TCustomChromium.doOnKeyEvent
 0001:0001B158       cefvcl.TCustomChromium.doOnLoadEnd
 0001:0001B190       cefvcl.TCustomChromium.doOnLoadError
 0001:0001B1D0       cefvcl.TCustomChromium.doOnLoadStart
 0001:0001B1F4       cefvcl.TCustomChromium.doOnMenuAction
 0001:0001B228       cefvcl.TCustomChromium.doOnNavStateChange
 0001:0001B2D8       cefvcl.TCustomChromium.doOnPaint
 0001:0001B2E0       cefvcl.TCustomChromium.doOnPopupShow
 0001:0001B2E4       cefvcl.TCustomChromium.doOnPopupSize
 0001:0001B2E8       cefvcl.TCustomChromium.doOnPrintHeaderFooter
 0001:0001B348       cefvcl.TCustomChromium.doOnPrintOptions
 0001:0001B37C       cefvcl.TCustomChromium.doOnProtocolExecution
 0001:0001B414       cefvcl.TCustomChromium.doOnRequestGeolocationPermission
 0001:0001B444       cefvcl.TCustomChromium.doOnResourceRedirect
 0001:0001B488       cefvcl.TCustomChromium.doOnResourceResponse
 0001:0001B4B8       cefvcl.TCustomChromium.doOnRunModal
 0001:0001B4EC       cefvcl.TCustomChromium.doOnSetFocus
 0001:0001B520       cefvcl.TCustomChromium.doOnSetZoomLevel
 0001:0001B55C       cefvcl.TCustomChromium.doOnStatusMessage
 0001:0001B594       cefvcl.TCustomChromium.doOnTakeFocus
 0001:0001B5B8       cefvcl.TCustomChromium.doOnTitleChange
 0001:0001B5EC       cefvcl.TCustomChromium.doOnTooltip
 0001:0001B620       cefvcl.TCustomChromium.GetSettings
 0001:0001BA90       cefvcl.TCustomChromium.Load
 0001:0001BAFC       cefvcl.TCustomChromium.Loaded
 0001:0001BB1C       cefvcl.TCustomChromium.ReCreateBrowser
 0001:0001BB90       cefvcl.TCustomChromium.Resize
 0001:0001BC70       cefvcl.TCustomChromium.WndProc
 0001:0001A830       cefvcl.TimerProc
 0001:0001A880       cefvcl.TVCLClientHandler.Create
 0001:0001A8E4       cefvcl.TVCLClientHandler.Destroy
 0002:000001BC       CheckLst.CheckLst
 0001:0001BDE0       CheckLst.Finalization
 0002:00000040       Classes.Classes
 0001:00000758       Classes.ExtractStrings
 0001:00000858       Classes.Finalization
 0001:00000748       Classes.Point
 0001:00000750       Classes.Rect
 0001:00000790       Classes.TCollection.GetCount
 0001:00000800       Classes.TComponent.BeforeDestruction
 0001:00000840       Classes.TComponent.QueryInterface
 0001:00000808       Classes.TComponent.ReadState
 0001:00000830       Classes.TComponent.SafeCallException
 0001:00000820       Classes.TComponent.SetName
 0001:00000828       Classes.TComponent.UpdateAction
 0001:00000838       Classes.TComponent.UpdateRegistry
 0001:00000818       Classes.TComponent.ValidateRename
 0001:00000810       Classes.TComponent.WriteState
 0001:00000848       Classes.TComponent._AddRef
 0001:00000850       Classes.TComponent._Release
 0001:000007D0       Classes.TCustomMemoryStream.SaveToStream
 0001:000007C8       Classes.TFileStream.Create
 0001:00000768       Classes.TInterfaceList.Create
 0001:00000760       Classes.TList.Sort
 0001:00000778       Classes.TPersistent.Assign
 0001:00000780       Classes.TPersistent.AssignTo
 0001:00000788       Classes.TPersistent.DefineProperties
 0001:00000770       Classes.TPersistent.Destroy
 0001:000007E8       Classes.TResourceStream.Create
 0001:000007B8       Classes.TStream.GetPosition
 0001:000007C0       Classes.TStream.SetPosition
 0001:000007B0       Classes.TStringList.Create
 0001:00000798       Classes.TStrings.Equals
 0001:000007A0       Classes.TStrings.SetDelimitedText
 0001:000007A8       Classes.TStrings.SetDelimiter
 0001:000007D8       Classes.TStringStream.Create
 0001:000007E0       Classes.TStringStream.GetDataString
 0002:00000038       Classes.TThread.Create@
 0001:000007F0       Classes.TThread.Destroy@
 0001:000007F8       Classes.TThread.Synchronize
 0002:00000108       Clipbrd.Clipbrd
 0001:00001040       Clipbrd.Finalization
 0002:000000E8       ComCtrls.ComCtrls
 0001:00000FC0       ComCtrls.Finalization
 0001:00000F48       ComCtrls.TAnimate.SetActive
 0001:00000F08       ComCtrls.TPageControl.GetPage
 0001:00000F10       ComCtrls.TPageControl.GetPageCount
 0001:00000F18       ComCtrls.TPageControl.SetActivePage
 0001:00000F20       ComCtrls.TPageControl.SetActivePageIndex
 0001:00000F38       ComCtrls.TProgressBar.SetMax
 0001:00000F40       ComCtrls.TProgressBar.SetPosition
 0001:00000F28       ComCtrls.TStatusPanel.SetText
 0001:00000F30       ComCtrls.TStatusPanels.GetItem
 0001:00000ED0       ComCtrls.TTabSheet.Create
 0001:00000EE8       ComCtrls.TTabSheet.CreateParams
 0001:00000ED8       ComCtrls.TTabSheet.Destroy
 0001:00000EE0       ComCtrls.TTabSheet.GetTabIndex
 0001:00000EF0       ComCtrls.TTabSheet.ReadState
 0001:00000EF8       ComCtrls.TTabSheet.SetPageControl
 0001:00000F00       ComCtrls.TTabSheet.UpdateControlOriginalParentSize
 0001:00000FB0       ComCtrls.TToolBar.GetButton
 0001:00000FB8       ComCtrls.TToolBar.GetButtonCount
 0001:00000FA8       ComCtrls.TToolButton.AssignTo
 0001:00000F88       ComCtrls.TToolButton.BeginUpdate
 0001:00000F50       ComCtrls.TToolButton.Create
 0001:00000F90       ComCtrls.TToolButton.EndUpdate
 0001:00000F58       ComCtrls.TToolButton.Notification
 0001:00000F68       ComCtrls.TToolButton.Paint
 0001:00000F98       ComCtrls.TToolButton.RefreshControl
 0001:00000F70       ComCtrls.TToolButton.SetAutoSize
 0001:00000F60       ComCtrls.TToolButton.SetBounds
 0001:00000F78       ComCtrls.TToolButton.SetImageIndex
 0001:00000F80       ComCtrls.TToolButton.SetStyle
 0001:00000FA0       ComCtrls.TToolButton.UpdateControl
 0002:00000140       ComObj.ComObj
 0001:00001088       ComObj.Finalization
 0001:00000A00       Contnrs.TObjectList.Add
 0001:00000A08       Contnrs.TObjectList.Create
 0001:00000A10       Contnrs.TObjectList.GetItem
 0002:000000D0       Controls.Controls
 0001:00000DF8       Controls.Finalization
 0001:00000AB0       Controls.FindControl
 0001:00000C40       Controls.TControl.AssignTo
 0001:00000BF0       Controls.TControl.CanAutoSize
 0001:00000BF8       Controls.TControl.CanResize
 0001:00000C00       Controls.TControl.ConstrainedResize
 0001:00000C28       Controls.TControl.CreateTouchManager
 0001:00000C20       Controls.TControl.DblClick
 0001:00000C10       Controls.TControl.DefaultHandler
 0001:00000C18       Controls.TControl.DefineProperties
 0001:00000BE0       Controls.TControl.DoGesture
 0001:00000BE8       Controls.TControl.DoGetGestureOptions
 0001:00000AC8       Controls.TControl.GetAction
 0001:00000C68       Controls.TControl.GetAlignWithMargins
 0001:00000B38       Controls.TControl.GetBoundsRect
 0001:00000B50       Controls.TControl.GetClientHeight
 0001:00000B58       Controls.TControl.GetClientOrigin
 0001:00000B40       Controls.TControl.GetClientRect
 0001:00000B48       Controls.TControl.GetClientWidth
 0001:00000BC0       Controls.TControl.GetDeviceContext
 0001:00000AB8       Controls.TControl.GetDragImages
 0001:00000AC0       Controls.TControl.GetEnabled
 0001:00000C48       Controls.TControl.GetFloating
 0001:00000C50       Controls.TControl.GetFloatingDockSiteClass
 0001:00000B90       Controls.TControl.GetText
 0001:00000C58       Controls.TControl.InitiateAction
 0001:00000BC8       Controls.TControl.Invalidate
 0001:00000AD8       Controls.TControl.IsAnchorsStored
 0001:00000BB0       Controls.TControl.IsColorStored
 0001:00000C30       Controls.TControl.IsVisibleStored
 0001:00000C38       Controls.TControl.Loaded
 0001:00000B00       Controls.TControl.Notification
 0001:00000AF8       Controls.TControl.ReadState
 0001:00000BD8       Controls.TControl.Repaint
 0001:00000AE8       Controls.TControl.RequestAlign
 0001:00000AF0       Controls.TControl.Resize
 0001:00000B60       Controls.TControl.ScreenToClient
 0001:00000B08       Controls.TControl.SetAlign
 0001:00000AD0       Controls.TControl.SetAnchors
 0001:00000B68       Controls.TControl.SetAutoSize
 0001:00000BA0       Controls.TControl.SetBiDiMode
 0001:00000B10       Controls.TControl.SetBounds
 0001:00000BA8       Controls.TControl.SetColor
 0001:00000C60       Controls.TControl.SetConstraints
 0001:00000AE0       Controls.TControl.SetDragMode
 0001:00000B88       Controls.TControl.SetEnabled
 0001:00000B30       Controls.TControl.SetHeight
 0001:00000B18       Controls.TControl.SetLeft
 0001:00000B70       Controls.TControl.SetName
 0001:00000B78       Controls.TControl.SetParent
 0001:00000BB8       Controls.TControl.SetParentBiDiMode
 0001:00000B98       Controls.TControl.SetText
 0001:00000B20       Controls.TControl.SetTop
 0001:00000B80       Controls.TControl.SetVisible
 0001:00000B28       Controls.TControl.SetWidth
 0001:00000BD0       Controls.TControl.Update
 0001:00000C08       Controls.TControl.WndProc
 0001:00000DF0       Controls.TGraphicControl.Destroy
 0001:00000C88       Controls.TWinControl.AdjustClientRect
 0001:00000C90       Controls.TWinControl.AlignControls
 0001:00000DC0       Controls.TWinControl.AssignTo
 0001:00000DC8       Controls.TWinControl.CanAutoSize
 0001:00000DB0       Controls.TWinControl.CanResize
 0001:00000DB8       Controls.TWinControl.ConstrainedResize
 0001:00000C70       Controls.TWinControl.Create
 0001:00000CE0       Controls.TWinControl.CreateHandle
 0001:00000CB0       Controls.TWinControl.CreateParams
 0001:00000CC0       Controls.TWinControl.CreateWindowHandle
 0001:00000CB8       Controls.TWinControl.CreateWnd
 0001:00000CE8       Controls.TWinControl.CustomAlignInsertBefore
 0001:00000CF0       Controls.TWinControl.CustomAlignPosition
 0001:00000D10       Controls.TWinControl.DefaultHandler
 0001:00000CC8       Controls.TWinControl.DefineProperties
 0001:00000C78       Controls.TWinControl.Destroy
 0001:00000CF8       Controls.TWinControl.DestroyHandle
 0001:00000CD8       Controls.TWinControl.DestroyWindowHandle
 0001:00000CD0       Controls.TWinControl.DestroyWnd
 0001:00000DD8       Controls.TWinControl.DockReplaceDockClient
 0001:00000D80       Controls.TWinControl.GetClientOrigin
 0001:00000D88       Controls.TWinControl.GetClientRect
 0001:00000C98       Controls.TWinControl.GetControl
 0001:00000CA0       Controls.TWinControl.GetControlCount
 0001:00000D78       Controls.TWinControl.GetControlExtents
 0001:00000D40       Controls.TWinControl.GetDeviceContext
 0001:00000D70       Controls.TWinControl.GetHandle
 0001:00000D90       Controls.TWinControl.GetTabOrder
 0001:00000D68       Controls.TWinControl.HandleNeeded
 0001:00000D48       Controls.TWinControl.Invalidate
 0001:00000CA8       Controls.TWinControl.Notification
 0001:00000D18       Controls.TWinControl.PaintWindow
 0001:00000C80       Controls.TWinControl.ReadState
 0001:00000D58       Controls.TWinControl.Repaint
 0001:00000D20       Controls.TWinControl.RequestAlign
 0001:00000DA8       Controls.TWinControl.SelectNext
 0001:00000D30       Controls.TWinControl.SetBounds
 0001:00000D28       Controls.TWinControl.SetDoubleBuffered
 0001:00000D60       Controls.TWinControl.SetFocus
 0001:00000DE8       Controls.TWinControl.SetParent
 0001:00000DD0       Controls.TWinControl.SetParentBackground
 0001:00000D00       Controls.TWinControl.SetParentDoubleBuffered
 0001:00000D98       Controls.TWinControl.SetTabOrder
 0001:00000DA0       Controls.TWinControl.SetTabStop
 0001:00000D38       Controls.TWinControl.ShowControl
 0001:00000D50       Controls.TWinControl.Update
 0001:00000DE0       Controls.TWinControl.UpdateControlOriginalParentSize
 0001:00000D08       Controls.TWinControl.WndProc
 0002:00000128       DB.DB
 0001:00001070       DB.Finalization
 0002:00000118       DBClient.DBClient
 0001:00001060       DBClient.Finalization
 0002:000000E0       Dialogs.Dialogs
 0001:00000EC8       Dialogs.Finalization
 0001:00000EC0       Dialogs.InputQuery
 0001:00000EB8       Dialogs.ShowMessage
 0001:00000EB0       Dialogs.TOpenDialog.GetFileName
 0004:000001E4       DialogsImpl..2
 0001:0002CD14       DialogsImpl..TDialogs
 0001:0002D0AC       DialogsImpl.Create_DialogObj
 0002:00000A08       DialogsImpl.DialogsImpl
 0001:0002D0DC       DialogsImpl.Finalization
 0001:0002CDE8       DialogsImpl.TDialogs.Ask
 0001:0002CE1C       DialogsImpl.TDialogs.Confirm
 0001:0002D080       DialogsImpl.TDialogs.Destroy
 0001:0002CDD4       DialogsImpl.TDialogs.InputBox
 0001:0002CE60       DialogsImpl.TDialogs.ShowError
 0001:0002CE50       DialogsImpl.TDialogs.ShowError
 0001:0002CE90       DialogsImpl.TDialogs.ShowErrorFmt
 0001:0002CEEC       DialogsImpl.TDialogs.ShowInfo
 0001:0002CF54       DialogsImpl.TDialogs.ShowMessage
 0001:0002CFBC       DialogsImpl.TDialogs.ShowMessageFmt
 0001:0002D018       DialogsImpl.TDialogs.Warning
 0002:00000148       DSIntf.DSIntf
 0001:00001090       DSIntf.Finalization
 0004:000001F0       EncdDecdImpl..2
 0001:00035D64       EncdDecdImpl..TEncdDecdObj
 0001:000362F8       EncdDecdImpl.Create_EncdDecdObj
 0001:00035DFC       EncdDecdImpl.CryptAcquireContext
 0001:00035E04       EncdDecdImpl.CryptCreateHash
 0001:00035E1C       EncdDecdImpl.CryptDestroyHash
 0001:00035E14       EncdDecdImpl.CryptGetHashParam
 0001:00035E0C       EncdDecdImpl.CryptHashData
 0001:00035E24       EncdDecdImpl.CryptReleaseContext
 0002:00000A54       EncdDecdImpl.EncdDecdImpl
 0001:00036378       EncdDecdImpl.Finalization
 0001:00036328       EncdDecdImpl.TEncdDecdObj.Base64DecodeStream
 0001:00036338       EncdDecdImpl.TEncdDecdObj.Base64DecodeString
 0001:00036350       EncdDecdImpl.TEncdDecdObj.Base64EncodeStream
 0001:00036360       EncdDecdImpl.TEncdDecdObj.Base64EncodeString
 0001:00035FA0       EncdDecdImpl.TEncdDecdObj.Decrypt
 0001:00035E2C       EncdDecdImpl.TEncdDecdObj.Encrypt
 0001:0003616C       EncdDecdImpl.TEncdDecdObj.MD5
 0002:000000F8       ExtCtrls.ExtCtrls
 0001:00001030       ExtCtrls.Finalization
 0001:00001010       ExtCtrls.TSplitter.CanResize
 0001:00000FE8       ExtCtrls.TSplitter.Create
 0001:00000FF0       ExtCtrls.TSplitter.Destroy
 0001:00001008       ExtCtrls.TSplitter.DoCanResize
 0001:00001018       ExtCtrls.TSplitter.MouseDown
 0001:00001020       ExtCtrls.TSplitter.MouseMove
 0001:00001028       ExtCtrls.TSplitter.MouseUp
 0001:00001000       ExtCtrls.TSplitter.Paint
 0001:00000FF8       ExtCtrls.TSplitter.RequestAlign
 0001:00000FD8       ExtCtrls.TTimer.SetEnabled
 0001:00000FE0       ExtCtrls.TTimer.SetInterval
 0001:00001048       FlatSB.Finalization
 0002:00000110       FlatSB.FlatSB
 0001:00001080       FMTBcd.Finalization
 0002:00000138       FMTBcd.FMTBcd
 0001:000004E8       Forms.Finalization
 0002:00000008       Forms.Forms
 0001:00000330       Forms.GetParentForm
 0001:000004C0       Forms.TApplication.CreateForm
 0001:000004A0       Forms.TApplication.GetTitle
 0001:000004B8       Forms.TApplication.Initialize
 0001:000004D8       Forms.TApplication.MessageBox
 0001:000004B0       Forms.TApplication.ProcessMessages
 0001:000004C8       Forms.TApplication.Run
 0001:000004E0       Forms.TApplication.SetMainFormOnTaskBar
 0001:000004A8       Forms.TApplication.SetTitle
 0001:000004D0       Forms.TApplication.Terminate
 0001:00000368       Forms.TCustomForm.AfterConstruction
 0001:000003F0       Forms.TCustomForm.AlignControls
 0001:00000378       Forms.TCustomForm.BeforeDestruction
 0001:00000458       Forms.TCustomForm.Close
 0001:00000460       Forms.TCustomForm.CloseQuery
 0001:00000360       Forms.TCustomForm.Create
 0001:00000370       Forms.TCustomForm.CreateNew
 0001:00000410       Forms.TCustomForm.CreateParams
 0001:00000420       Forms.TCustomForm.CreateWindowHandle
 0001:00000418       Forms.TCustomForm.CreateWnd
 0001:00000438       Forms.TCustomForm.DefaultHandler
 0001:000003B0       Forms.TCustomForm.DefineProperties
 0001:00000380       Forms.TCustomForm.Destroy
 0001:00000428       Forms.TCustomForm.DestroyHandle
 0001:00000430       Forms.TCustomForm.DestroyWindowHandle
 0001:00000388       Forms.TCustomForm.DoCreate
 0001:00000390       Forms.TCustomForm.DoDestroy
 0001:000003B8       Forms.TCustomForm.GetClientRect
 0001:000003C0       Forms.TCustomForm.GetFloating
 0001:00000468       Forms.TCustomForm.Hide
 0001:00000398       Forms.TCustomForm.Loaded
 0001:000003A0       Forms.TCustomForm.Notification
 0001:00000448       Forms.TCustomForm.PaintWindow
 0001:00000498       Forms.TCustomForm.QueryInterface
 0001:000003A8       Forms.TCustomForm.ReadState
 0001:00000490       Forms.TCustomForm.RequestAlign
 0001:00000450       Forms.TCustomForm.Resizing
 0001:000003F8       Forms.TCustomForm.SetBorderStyle
 0001:00000478       Forms.TCustomForm.SetFocus
 0001:00000440       Forms.TCustomForm.SetFocusedControl
 0001:00000400       Forms.TCustomForm.SetFormStyle
 0001:00000408       Forms.TCustomForm.SetMenu
 0001:000003D8       Forms.TCustomForm.SetParent
 0001:000003C8       Forms.TCustomForm.SetParentBiDiMode
 0001:00000470       Forms.TCustomForm.Show
 0001:00000480       Forms.TCustomForm.ShowModal
 0001:00000488       Forms.TCustomForm.UpdateActions
 0001:000003E0       Forms.TCustomForm.ValidateRename
 0001:000003D0       Forms.TCustomForm.WantChildKey
 0001:000003E8       Forms.TCustomForm.WndProc
 0001:00000358       Forms.TScrollingWinControl.AdjustClientRect
 0001:00000338       Forms.TScrollingWinControl.AutoScrollEnabled
 0001:00000350       Forms.TScrollingWinControl.AutoScrollInView
 0001:00000340       Forms.TScrollingWinControl.DoGesture
 0001:00000348       Forms.TScrollingWinControl.DoGetGestureOptions
 0001:0001BD70       FunctionItemIntf.TFunctionPermission.addorsetSubFunction
 0001:0001BD68       FunctionItemIntf.TFunctionPermission.Create
 0001:0001BDD8       GdiPlus.Finalization
 0002:000001B4       GdiPlus.GdiPlus
 0001:00001058       Generics.Collections.InCircularRange
 0001:00001050       Generics.Defaults._LookupVtableInfo
 0001:0001BD40       GIFImg.Finalization
 0002:00000194       GIFImg.GIFImg
 0001:00000A58       Graphics.Finalization
 0002:000000A0       Graphics.Graphics
 0001:00000A38       Graphics.TFont.SetColor
 0001:00000A40       Graphics.TFont.SetSize
 0001:00000A48       Graphics.TFont.SetStyle
 0001:00000A50       Graphics.TPicture.LoadFromFile
 0001:00000FC8       GraphUtil.Finalization
 0002:000000F0       GraphUtil.GraphUtil
 0001:000009F8       HelpIntfs.Finalization
 0002:00000088       HelpIntfs.HelpIntfs
 0001:00000A28       ImgList.TCustomImageList.Add
 0001:00000A30       ImgList.TCustomImageList.AddIcon
 0001:0001BE10       ImgUtil.Finalization
 0002:000001D4       ImgUtil.ImgUtil
 0001:00000A90       IniFiles.Finalization
 0002:000000B0       IniFiles.IniFiles
 0001:00000A88       IniFiles.TCustomIniFile.Create
 0001:00000AA0       IOUtils.Finalization
 0002:000000C0       IOUtils.IOUtils
 0002:000000B8       IOUtils.TPath.Create@
 0001:00000A98       IOUtils.TPath.Destroy@
 0001:0001BD48       jpeg.Finalization
 0002:0000019C       jpeg.jpeg
 0001:000009D8       Math.Max
 0001:00000EA8       Menus.Finalization
 0002:000000D8       Menus.Menus
 0001:00000E00       Menus.ShortCut
 0001:00000E08       Menus.TextToShortCut
 0001:00000EA0       Menus.TMenu.SetAutoHotkeys
 0001:00000E78       Menus.TMenuItem.Add
 0001:00000E38       Menus.TMenuItem.AdvancedDrawItem
 0001:00000E88       Menus.TMenuItem.AssignTo
 0001:00000E70       Menus.TMenuItem.Click
 0001:00000E10       Menus.TMenuItem.Create
 0001:00000E28       Menus.TMenuItem.DefineProperties
 0001:00000E18       Menus.TMenuItem.Destroy
 0001:00000E30       Menus.TMenuItem.DrawItem
 0001:00000E98       Menus.TMenuItem.Find
 0001:00000E50       Menus.TMenuItem.GetCount
 0001:00000E58       Menus.TMenuItem.GetItem
 0001:00000E68       Menus.TMenuItem.InitiateAction
 0001:00000E20       Menus.TMenuItem.Loaded
 0001:00000E40       Menus.TMenuItem.MeasureItem
 0001:00000E80       Menus.TMenuItem.MenuChanged
 0001:00000E90       Menus.TMenuItem.Notification
 0001:00000E48       Menus.TMenuItem.SetCaption
 0001:00000E60       Menus.TMenuItem.SetVisible
 0001:00000A18       MultiMon.Finalization
 0002:00000090       MultiMon.MultiMon
 0001:000397D8       NvBUS.Finalization
 0002:00000B10       NvBUS.NvBUS
 0001:000010A8       pngimage.Finalization
 0002:00000160       pngimage.pngimage
 0001:00001038       Printers.Finalization
 0002:00000100       Printers.Printers
 0001:00036380       ProgressForm..Tfrm_ProgressForm
 0001:00036614       ProgressForm.Tfrm_ProgressForm.FormCreate
 0004:000001F4       ProgressFormImpl..2
 0001:000366B4       ProgressFormImpl..TProgressFormObj
 0001:00036904       ProgressFormImpl.Create_ProgressFormObj
 0001:00036934       ProgressFormImpl.Finalization
 0002:00000A8C       ProgressFormImpl.ProgressFormImpl
 0001:000367D8       ProgressFormImpl.TProgressFormObj.Create
 0001:00036800       ProgressFormImpl.TProgressFormObj.CreateForm
 0001:00036830       ProgressFormImpl.TProgressFormObj.Destroy
 0001:00036868       ProgressFormImpl.TProgressFormObj.Hide
 0001:0003688C       ProgressFormImpl.TProgressFormObj.progress
 0001:000368D4       ProgressFormImpl.TProgressFormObj.ShowMsg
 0001:00001098       Provider.Finalization
 0002:00000150       Provider.Provider
 0001:0001BDD0       PubFn.Finalization
 0001:0001BDC0       PubFn.getParametervalue
 0001:0001BDC8       PubFn.getWeekNum
 0002:000001AC       PubFn.PubFn
 0001:00000A80       Registry.Finalization
 0002:000000A8       Registry.Registry
 0001:00000A60       Registry.TRegistry.Create
 0001:00000A70       Registry.TRegistry.OpenKey
 0001:00000A78       Registry.TRegistry.ReadString
 0001:00000A68       Registry.TRegistry.SetRootKey
 0001:000010B0       Rtti.Finalization
 0002:00000168       Rtti.Rtti
 0004:000001FC       RunOnce..1
 0001:000396B4       RunOnce.CreateMapFile
 0001:000397C4       RunOnce.Finalization
 0001:000397A8       RunOnce.FreeMapFile
 0004:00000200       RunOnce.hMapFile
 0004:00000204       RunOnce.PSMem
 0002:00000AFC       RunOnce.RunOnce
 0001:0001BD30       ScktComp.TCustomWinSocket.ReceiveBuf
 0001:0001BD38       ScktComp.TCustomWinSocket.ReceiveLength
 0001:0001BD78       Services.FactoryManager
 0001:0001BDB8       Services.Finalization
 0002:000001A4       Services.Services
 0001:0001BD88       Services.SysDialogs
 0001:0001BDA8       Services.SysFunctionMgr
 0001:0001BD98       Services.SysInfo
 0001:0001BD90       Services.SysLog
 0001:0001BDA0       Services.SysMainForm
 0001:0001BD80       Services.SysService
 0001:0001BDB0       Services.SysSplashForm
 0001:00000FD0       ShellAPI.ShellExecute
 0004:000001E0       SplashFormImpl..2
 0001:0002C9B0       SplashFormImpl..TSplashFormObj
 0001:0002CC48       SplashFormImpl.Finalization
 0002:000009FC       SplashFormImpl.SplashFormImpl
 0001:0002CAE0       SplashFormImpl.TSplashFormObj.Create
 0001:0002CB24       SplashFormImpl.TSplashFormObj.Destroy
 0001:0002CB58       SplashFormImpl.TSplashFormObj.Hide
 0001:0002CBC8       SplashFormImpl.TSplashFormObj.loading
 0001:0002CB78       SplashFormImpl.TSplashFormObj.QueryInterface
 0001:0002CB68       SplashFormImpl.TSplashFormObj.Show
 0001:0002CBA0       SplashFormImpl.TSplashFormObj._AddRef
 0001:0002CBB4       SplashFormImpl.TSplashFormObj._Release
 0001:00001068       SqlTimSt.Finalization
 0002:00000120       SqlTimSt.SqlTimSt
 0001:0001BE40       superobject.Finalization
 0002:000001FC       superobject.superobject
 0001:00000740       SyncObjs.Finalization
 0002:00000030       SyncObjs.SyncObjs
 0001:00000728       SyncObjs.TCriticalSection.Create
 0001:00000730       SyncObjs.TCriticalSection.Enter
 0001:00000738       SyncObjs.TCriticalSection.Leave
 0001:0002C930       SysFactory.TIntfFactory.Create
 0001:0002C938       SysFactory.TSingletonFactory.Create
 0001:0002D0E4       SysFactoryEx.TObjFactoryEx.Create
 0001:0001BE60       SysFactoryMgr.Finalization
 0002:00000204       SysFactoryMgr.SysFactoryMgr
 0001:0001BE48       SysFactoryMgr.TSysFactoryManager.FindFactory
 0001:0001BE50       SysFactoryMgr.TSysFactoryManager.ReleaseInstances
 0001:0001BE58       SysFactoryMgr.TSysFactoryManager.UnRegisterFactory
 0004:000001F8       SysInfoImpl..2
 0001:00037E2C       SysInfoImpl..TDictionary<System.string,System.Integer>
 0001:000375C8       SysInfoImpl..TDictionary<System.string,System.Integer>.TKeyCollection
 0001:00037400       SysInfoImpl..TDictionary<System.string,System.Integer>.TKeyEnumerator
 0001:00037C64       SysInfoImpl..TDictionary<System.string,System.Integer>.TPairEnumerator
 0001:00037AAC       SysInfoImpl..TDictionary<System.string,System.Integer>.TValueCollection
 0001:000378E0       SysInfoImpl..TDictionary<System.string,System.Integer>.TValueEnumerator
 0001:0003782C       SysInfoImpl..TEnumerable<System.Integer>
 0001:00037314       SysInfoImpl..TEnumerable<System.string>
 0001:00036F08       SysInfoImpl..TEnumerable<TPair<System.string,System.Integer>>
 0001:0003777C       SysInfoImpl..TEnumerator<System.Integer>
 0001:000371FC       SysInfoImpl..TEnumerator<System.string>
 0001:00036DC4       SysInfoImpl..TEnumerator<TPair<System.string,System.Integer>>
 0001:00036A48       SysInfoImpl..TSysInfoObj
 0001:000387C4       SysInfoImpl.CreateSysInfoObj
 0001:000387F4       SysInfoImpl.Finalization
 0002:00000AC4       SysInfoImpl.SysInfoImpl
 0001:00038F8C       SysInfoImpl.TDictionary<System.string,System.Integer>.Add
 0001:00039194       SysInfoImpl.TDictionary<System.string,System.Integer>.AddOrSetValue
 0001:00039068       SysInfoImpl.TDictionary<System.string,System.Integer>.Clear
 0001:000391F8       SysInfoImpl.TDictionary<System.string,System.Integer>.ContainsKey
 0001:00039220       SysInfoImpl.TDictionary<System.string,System.Integer>.ContainsValue
 0001:00038CB8       SysInfoImpl.TDictionary<System.string,System.Integer>.Create
 0001:00038D70       SysInfoImpl.TDictionary<System.string,System.Integer>.Create
 0001:00038C7C       SysInfoImpl.TDictionary<System.string,System.Integer>.Create
 0001:00038C40       SysInfoImpl.TDictionary<System.string,System.Integer>.Create
 0001:00038E5C       SysInfoImpl.TDictionary<System.string,System.Integer>.Create
 0001:00038F4C       SysInfoImpl.TDictionary<System.string,System.Integer>.Destroy
 0001:00038A80       SysInfoImpl.TDictionary<System.string,System.Integer>.DoAdd
 0001:00038BFC       SysInfoImpl.TDictionary<System.string,System.Integer>.DoGetEnumerator
 0001:00038B0C       SysInfoImpl.TDictionary<System.string,System.Integer>.DoRemove
 0001:00038AD0       SysInfoImpl.TDictionary<System.string,System.Integer>.DoSetValue
 0001:0003901C       SysInfoImpl.TDictionary<System.string,System.Integer>.ExtractPair
 0001:00038988       SysInfoImpl.TDictionary<System.string,System.Integer>.GetBucketIndex
 0001:000392FC       SysInfoImpl.TDictionary<System.string,System.Integer>.GetEnumerator
 0001:000392B4       SysInfoImpl.TDictionary<System.string,System.Integer>.GetKeys
 0001:000392D8       SysInfoImpl.TDictionary<System.string,System.Integer>.GetValues
 0001:00038960       SysInfoImpl.TDictionary<System.string,System.Integer>.Grow
 0001:00038A0C       SysInfoImpl.TDictionary<System.string,System.Integer>.Hash
 0001:00038C08       SysInfoImpl.TDictionary<System.string,System.Integer>.KeyNotify
 0001:00038878       SysInfoImpl.TDictionary<System.string,System.Integer>.Rehash
 0001:00038A30       SysInfoImpl.TDictionary<System.string,System.Integer>.RehashAdd
 0001:00038FF8       SysInfoImpl.TDictionary<System.string,System.Integer>.Remove
 0001:00038834       SysInfoImpl.TDictionary<System.string,System.Integer>.SetCapacity
 0001:0003933C       SysInfoImpl.TDictionary<System.string,System.Integer>.TKeyCollection.Create
 0001:00039330       SysInfoImpl.TDictionary<System.string,System.Integer>.TKeyCollection.DoGetEnumerator
 0001:00039328       SysInfoImpl.TDictionary<System.string,System.Integer>.TKeyCollection.GetCount
 0001:0003937C       SysInfoImpl.TDictionary<System.string,System.Integer>.TKeyCollection.GetEnumerator
 0001:000393D8       SysInfoImpl.TDictionary<System.string,System.Integer>.TKeyEnumerator.Create
 0001:000393B4       SysInfoImpl.TDictionary<System.string,System.Integer>.TKeyEnumerator.DoGetCurrent
 0001:000393CC       SysInfoImpl.TDictionary<System.string,System.Integer>.TKeyEnumerator.DoMoveNext
 0001:00039390       SysInfoImpl.TDictionary<System.string,System.Integer>.TKeyEnumerator.GetCurrent
 0001:00039420       SysInfoImpl.TDictionary<System.string,System.Integer>.TKeyEnumerator.MoveNext
 0001:000395E8       SysInfoImpl.TDictionary<System.string,System.Integer>.TPairEnumerator.Create
 0001:000395C4       SysInfoImpl.TDictionary<System.string,System.Integer>.TPairEnumerator.DoGetCurrent
 0001:000395DC       SysInfoImpl.TDictionary<System.string,System.Integer>.TPairEnumerator.DoMoveNext
 0001:0003958C       SysInfoImpl.TDictionary<System.string,System.Integer>.TPairEnumerator.GetCurrent
 0001:00039630       SysInfoImpl.TDictionary<System.string,System.Integer>.TPairEnumerator.MoveNext
 0001:00039138       SysInfoImpl.TDictionary<System.string,System.Integer>.TrimExcess
 0001:00039148       SysInfoImpl.TDictionary<System.string,System.Integer>.TryGetValue
 0001:00039488       SysInfoImpl.TDictionary<System.string,System.Integer>.TValueCollection.Create
 0001:0003947C       SysInfoImpl.TDictionary<System.string,System.Integer>.TValueCollection.DoGetEnumerator
 0001:00039474       SysInfoImpl.TDictionary<System.string,System.Integer>.TValueCollection.GetCount
 0001:000394C8       SysInfoImpl.TDictionary<System.string,System.Integer>.TValueCollection.GetEnumerator
 0001:00039508       SysInfoImpl.TDictionary<System.string,System.Integer>.TValueEnumerator.Create
 0001:000394F0       SysInfoImpl.TDictionary<System.string,System.Integer>.TValueEnumerator.DoGetCurrent
 0001:000394FC       SysInfoImpl.TDictionary<System.string,System.Integer>.TValueEnumerator.DoMoveNext
 0001:000394DC       SysInfoImpl.TDictionary<System.string,System.Integer>.TValueEnumerator.GetCurrent
 0001:00039550       SysInfoImpl.TDictionary<System.string,System.Integer>.TValueEnumerator.MoveNext
 0001:00038C24       SysInfoImpl.TDictionary<System.string,System.Integer>.ValueNotify
 0001:0003945C       SysInfoImpl.TEnumerable<System.Integer>.GetEnumerator
 0001:00039310       SysInfoImpl.TEnumerable<System.string>.GetEnumerator
 0001:0003881C       SysInfoImpl.TEnumerable<TPair<System.string,System.Integer>>.GetEnumerator
 0001:00039468       SysInfoImpl.TEnumerator<System.Integer>.MoveNext
 0001:0003931C       SysInfoImpl.TEnumerator<System.string>.MoveNext
 0001:00038828       SysInfoImpl.TEnumerator<TPair<System.string,System.Integer>>.MoveNext
 0001:00039690       SysInfoImpl.TEqualityComparer<System.Integer>.Default
 0001:0003966C       SysInfoImpl.TEqualityComparer<System.string>.Default
 0001:000387FC       SysInfoImpl.TPair<System.string,System.Integer>.Create
 0001:000384D8       SysInfoImpl.TSysInfoObj.AppPath
 0001:00038524       SysInfoImpl.TSysInfoObj.Create
 0001:00038560       SysInfoImpl.TSysInfoObj.Destroy
 0001:0003859C       SysInfoImpl.TSysInfoObj.ErrPath
 0001:000386F0       SysInfoImpl.TSysInfoObj.getCardManage
 0001:000386F4       SysInfoImpl.TSysInfoObj.getCurBillLength
 0001:000386F8       SysInfoImpl.TSysInfoObj.getLocalHostAddress
 0001:00038710       SysInfoImpl.TSysInfoObj.getLocalHostName
 0001:00038728       SysInfoImpl.TSysInfoObj.getLoginUserInfo
 0001:0003861C       SysInfoImpl.TSysInfoObj.getServerSecretKey
 0001:00038634       SysInfoImpl.TSysInfoObj.getServerURL
 0001:0003864C       SysInfoImpl.TSysInfoObj.setCardManage
 0001:00038650       SysInfoImpl.TSysInfoObj.setCurBillLength
 0001:00038654       SysInfoImpl.TSysInfoObj.setLocalHostAddress
 0001:000386A0       SysInfoImpl.TSysInfoObj.setLocalHostName
 0001:000386EC       SysInfoImpl.TSysInfoObj.setLoginUserINfo
 0001:0003872C       SysInfoImpl.TSysInfoObj.SetServerSecretKey
 0001:00038778       SysInfoImpl.TSysInfoObj.SetServerURL
 0001:000002E4       SysInit.@InitExe
 0001:000002D0       SysInit.GetModuleHandle
 0004:00000000       SysInit.HInstance
 0001:000002D8       SysInit.InitializeModule
 0003:00000008       SysInit.Module
 0003:00000004       SysInit.PtrToNil
 0003:00000000       SysInit.TlsIndex
 0004:000001CC       SysSvc..2
 0001:0001BECC       SysSvc..TSysService
 0001:0001C034       SysSvc.Finalization
 0002:0000021C       SysSvc.SysSvc
 0001:0001BFB4       SysSvc.TSysService.QueryInterface
 0001:0001BF78       SysSvc.TSysService._AddRef
 0001:0001BF8C       SysSvc.TSysService._Release
 0001:00000040       System.@AbstractError
 0001:00000100       System.@AfterConstruction
 0001:000000A0       System.@AsClass
 0001:00000148       System.@Assert
 0001:00000108       System.@BeforeDestruction
 0001:000000B0       System.@CallDynaClass
 0001:000000A8       System.@CallDynaInst
 0001:000000F0       System.@ClassCreate
 0001:000000F8       System.@ClassDestroy
 0001:00000240       System.@CopyRecord
 0001:00000130       System.@DoneExcept
 0001:00000268       System.@DynArrayAsg
 0001:00000260       System.@DynArrayClear
 0001:00000250       System.@DynArrayHigh
 0001:00000248       System.@DynArrayLength
 0001:00000258       System.@DynArraySetLength
 0001:00000160       System.@EnsureAnsiString
 0001:00000158       System.@EnsureUnicodeString
 0001:00000048       System.@FillChar
 0001:00000238       System.@FinalizeArray
 0001:00000230       System.@FinalizeRecord
 0001:00000008       System.@FreeMem
 0001:00000000       System.@GetMem
 0001:00000140       System.@Halt0
 0001:00000110       System.@HandleAnyException
 0001:00000120       System.@HandleFinally
 0001:00000118       System.@HandleOnException
 0001:00000228       System.@InitializeRecord
 0001:00000290       System.@IntfAddRef
 0001:00000288       System.@IntfCast
 0001:00000278       System.@IntfClear
 0001:00000280       System.@IntfCopy
 0001:00000098       System.@IsClass
 0001:00000150       System.@LStrClr
 0001:00000168       System.@LStrFromPWChar
 0001:000001D8       System.@LStrFromUStr
 0001:00000170       System.@LStrLen
 0001:00000188       System.@LStrSetLength
 0001:00000178       System.@LStrToPChar
 0001:00000128       System.@RaiseExcept
 0001:00000138       System.@StartExe
 0001:00000180       System.@UniqueStringA
 0001:00000190       System.@UStrAddRef
 0001:000001A0       System.@UStrArrayClr
 0001:000001A8       System.@UStrAsg
 0001:000001F0       System.@UStrCat
 0001:000001F8       System.@UStrCat3
 0001:00000200       System.@UStrCatN
 0001:00000198       System.@UStrClr
 0001:00000210       System.@UStrCopy
 0001:00000218       System.@UStrDelete
 0001:00000208       System.@UStrEqual
 0001:000001D0       System.@UStrFromLStr
 0001:000001C0       System.@UStrFromPWCharLen
 0001:000001C8       System.@UStrFromWChar
 0001:000001B0       System.@UStrLAsg
 0001:000001E0       System.@UStrLen
 0001:000001E8       System.@UStrSetLength
 0001:000001B8       System.@UStrToPWChar
 0001:000002C8       System.Finalization
 0001:00000038       System.Get8087CW
 0001:00000010       System.Move
 0001:00000018       System.ParamStr
 0001:00000220       System.Pos
 0001:00000028       System.Random
 0001:00000020       System.Randomize
 0001:00000270       System.RegisterModule
 0001:00000030       System.Set8087CW
 0002:00000000       System.System
 0001:00000298       System.TInterfacedObject.AfterConstruction
 0001:000002A0       System.TInterfacedObject.BeforeDestruction
 0001:000002A8       System.TInterfacedObject.NewInstance
 0001:000002B0       System.TInterfacedObject.QueryInterface
 0001:000002B8       System.TInterfacedObject._AddRef
 0001:000002C0       System.TInterfacedObject._Release
 0001:000000D8       System.TObject.AfterConstruction
 0001:000000E0       System.TObject.BeforeDestruction
 0001:00000050       System.TObject.ClassName
 0001:00000068       System.TObject.Create
 0001:000000D0       System.TObject.DefaultHandler
 0001:00000070       System.TObject.Destroy
 0001:000000E8       System.TObject.Dispatch
 0001:00000080       System.TObject.Equals
 0001:00000078       System.TObject.Free
 0001:00000060       System.TObject.FreeInstance
 0001:00000088       System.TObject.GetHashCode
 0001:00000090       System.TObject.GetInterface
 0001:000000B8       System.TObject.InheritsFrom
 0001:00000058       System.TObject.NewInstance
 0001:000000C0       System.TObject.SafeCallException
 0001:000000C8       System.TObject.ToString
 0001:0001BE78       SystemInstance.Finalization
 0002:00000214       SystemInstance.SystemInstance
 0001:00000888       SysUtils.AnsiLowerCase
 0001:00000880       SysUtils.CompareText
 0001:00000930       SysUtils.Date
 0001:00000948       SysUtils.DateTimeToStr
 0001:00000918       SysUtils.DateTimeToSystemTime
 0001:00000928       SysUtils.DayOfWeek
 0001:000008B8       SysUtils.DirectoryExists
 0001:00000910       SysUtils.EncodeDate
 0001:00000908       SysUtils.EncodeTime
 0001:00000960       SysUtils.Exception.Create
 0002:00000060       SysUtils.Exception.Create@
 0001:00000968       SysUtils.Exception.CreateRes
 0001:00000970       SysUtils.Exception.Destroy
 0001:00000990       SysUtils.Exception.Destroy@
 0001:00000978       SysUtils.Exception.GetBaseException
 0001:00000980       SysUtils.Exception.RaisingException
 0001:00000988       SysUtils.Exception.ToString
 0001:000008F0       SysUtils.ExtractFileExt
 0001:000008E8       SysUtils.ExtractFileName
 0001:000008E0       SysUtils.ExtractFilePath
 0001:000008B0       SysUtils.FileExists
 0001:000009D0       SysUtils.Finalization
 0001:000008D8       SysUtils.FindClose
 0001:000008C8       SysUtils.FindFirst
 0001:000008D0       SysUtils.FindNext
 0001:000008C0       SysUtils.ForceDirectories
 0001:00000900       SysUtils.Format
 0001:00000950       SysUtils.FormatDateTime
 0001:000009B8       SysUtils.FreeAndNil
 0001:00000870       SysUtils.GUIDToString
 0001:00000998       SysUtils.IncludeTrailingPathDelimiter
 0001:000008A0       SysUtils.IntToHex
 0001:00000898       SysUtils.IntToStr
 0001:000009A0       SysUtils.LoadPackage
 0001:00000878       SysUtils.LowerCase
 0001:00000940       SysUtils.Now
 0001:00000958       SysUtils.OutOfMemoryError
 0001:000009B0       SysUtils.RaiseLastOSError
 0001:00000868       SysUtils.StringToGUID
 0001:000008F8       SysUtils.StrPas
 0001:000008A8       SysUtils.StrToInt
 0001:00000920       SysUtils.SystemTimeToDateTime
 0002:00000068       SysUtils.SysUtils
 0002:00000058       SysUtils.TEncoding.Create@
 0001:000009C8       SysUtils.TEncoding.Destroy@
 0001:00000938       SysUtils.Time
 0002:00000050       SysUtils.TLanguages.Create@
 0001:000009C0       SysUtils.TLanguages.Destroy@
 0001:00000890       SysUtils.Trim
 0001:000009A8       SysUtils.UnloadPackage
 0001:0001BE28       Tabs.Finalization
 0002:000001E4       Tabs.Tabs
 0001:00000AA8       Themes.Finalization
 0002:000000C8       Themes.Themes
 0002:00000080       TimeSpan.TTimeSpan.Create@
 0001:000009F0       TimeSpan.TTimeSpan.Destroy@
 0001:00000860       TypInfo.Finalization
 0002:00000048       TypInfo.TypInfo
 0001:0001BD50       uBaseForm.TBaseForm.Create
 0001:0001BD58       uBaseForm.TBaseForm.Destroy
 0001:0001BD60       uBaseForm.TBaseForm.HandleAuthority
 0001:0001C03C       UFrmException..TfrmException
 0004:000001D0       UFrmException.frmException
 0001:0001C47C       UFrmException.TfrmException.FormClose
 0001:0001C480       UFrmException.TfrmException.FormShow
 0001:0001C48C       UFrmException.TfrmException.GetExceptionClass
 0001:0001C4A8       UFrmException.TfrmException.GetExceptionMsg
 0001:0001C4C4       UFrmException.TfrmException.GetSourceClass
 0001:0001C4E0       UFrmException.TfrmException.SetExceptionClass
 0001:0001C4F0       UFrmException.TfrmException.SetExceptionMsg
 0001:0001C500       UFrmException.TfrmException.SetSourceClass
 0004:000001DC       UFrmMain.$life
 0004:000001D8       UFrmMain..01
 0001:00021FE4       UFrmMain..TDictionary<System.Integer,ExtCtrls.TImage>
 0001:000216DC       UFrmMain..TDictionary<System.Integer,ExtCtrls.TImage>.TKeyCollection
 0001:00021514       UFrmMain..TDictionary<System.Integer,ExtCtrls.TImage>.TKeyEnumerator
 0001:00021E1C       UFrmMain..TDictionary<System.Integer,ExtCtrls.TImage>.TPairEnumerator
 0001:00021C64       UFrmMain..TDictionary<System.Integer,ExtCtrls.TImage>.TValueCollection
 0001:00021A98       UFrmMain..TDictionary<System.Integer,ExtCtrls.TImage>.TValueEnumerator
 0001:000219A8       UFrmMain..TEnumerable<ExtCtrls.TImage>
 0001:00021424       UFrmMain..TEnumerable<System.Integer>
 0001:00020F70       UFrmMain..TEnumerable<TPair<System.Integer,ExtCtrls.TImage>>
 0001:00021890       UFrmMain..TEnumerator<ExtCtrls.TImage>
 0001:00021310       UFrmMain..TEnumerator<System.Integer>
 0001:00020E2C       UFrmMain..TEnumerator<TPair<System.Integer,ExtCtrls.TImage>>
 0001:00020D04       UFrmMain..TExtension
 0001:0001E2C8       UFrmMain..TfrmMain
 0001:0001DB68       UFrmMain..TMenuItem
 0001:0001DFB8       UFrmMain..TNovaSplitter
 0001:0001DCC4       UFrmMain..TTabSheet
 0001:0001DE58       UFrmMain..TToolButton
 0001:0002B804       UFrmMain..UFrmMain$ActRec
 0001:00024A90       UFrmMain.CefOnRegisterCustomSchemes
 0001:00026FA8       UFrmMain.CreateMenuItem
 0001:0002B794       UFrmMain.Finalization
 0001:000254A4       UFrmMain.findmenuitem
 0001:00025F98       UFrmMain.findmenuitem
 0004:000001D4       UFrmMain.frmMain
 0001:0002BFE8       UFrmMain.TDictionary<System.Integer,ExtCtrls.TImage>.Add
 0001:0002C1F0       UFrmMain.TDictionary<System.Integer,ExtCtrls.TImage>.AddOrSetValue
 0001:0002C0C4       UFrmMain.TDictionary<System.Integer,ExtCtrls.TImage>.Clear
 0001:0002C254       UFrmMain.TDictionary<System.Integer,ExtCtrls.TImage>.ContainsKey
 0001:0002C27C       UFrmMain.TDictionary<System.Integer,ExtCtrls.TImage>.ContainsValue
 0001:0002BD50       UFrmMain.TDictionary<System.Integer,ExtCtrls.TImage>.Create
 0001:0002BD8C       UFrmMain.TDictionary<System.Integer,ExtCtrls.TImage>.Create
 0001:0002BE44       UFrmMain.TDictionary<System.Integer,ExtCtrls.TImage>.Create
 0001:0002BEF4       UFrmMain.TDictionary<System.Integer,ExtCtrls.TImage>.Create
 0001:0002BD14       UFrmMain.TDictionary<System.Integer,ExtCtrls.TImage>.Create
 0001:0002BFA8       UFrmMain.TDictionary<System.Integer,ExtCtrls.TImage>.Destroy
 0001:0002BB54       UFrmMain.TDictionary<System.Integer,ExtCtrls.TImage>.DoAdd
 0001:0002BCD0       UFrmMain.TDictionary<System.Integer,ExtCtrls.TImage>.DoGetEnumerator
 0001:0002BBE0       UFrmMain.TDictionary<System.Integer,ExtCtrls.TImage>.DoRemove
 0001:0002BBA4       UFrmMain.TDictionary<System.Integer,ExtCtrls.TImage>.DoSetValue
 0001:0002C078       UFrmMain.TDictionary<System.Integer,ExtCtrls.TImage>.ExtractPair
 0001:0002BA1C       UFrmMain.TDictionary<System.Integer,ExtCtrls.TImage>.GetBucketIndex
 0001:0002C358       UFrmMain.TDictionary<System.Integer,ExtCtrls.TImage>.GetEnumerator
 0001:0002BAC4       UFrmMain.TDictionary<System.Integer,ExtCtrls.TImage>.GetItem
 0001:0002C310       UFrmMain.TDictionary<System.Integer,ExtCtrls.TImage>.GetKeys
 0001:0002C334       UFrmMain.TDictionary<System.Integer,ExtCtrls.TImage>.GetValues
 0001:0002B9F4       UFrmMain.TDictionary<System.Integer,ExtCtrls.TImage>.Grow
 0001:0002BAA0       UFrmMain.TDictionary<System.Integer,ExtCtrls.TImage>.Hash
 0001:0002BCDC       UFrmMain.TDictionary<System.Integer,ExtCtrls.TImage>.KeyNotify
 0001:0002B90C       UFrmMain.TDictionary<System.Integer,ExtCtrls.TImage>.Rehash
 0001:0002BB0C       UFrmMain.TDictionary<System.Integer,ExtCtrls.TImage>.RehashAdd
 0001:0002C054       UFrmMain.TDictionary<System.Integer,ExtCtrls.TImage>.Remove
 0001:0002B8C8       UFrmMain.TDictionary<System.Integer,ExtCtrls.TImage>.SetCapacity
 0001:0002C398       UFrmMain.TDictionary<System.Integer,ExtCtrls.TImage>.TKeyCollection.Create
 0001:0002C38C       UFrmMain.TDictionary<System.Integer,ExtCtrls.TImage>.TKeyCollection.DoGetEnumerator
 0001:0002C384       UFrmMain.TDictionary<System.Integer,ExtCtrls.TImage>.TKeyCollection.GetCount
 0001:0002C3D8       UFrmMain.TDictionary<System.Integer,ExtCtrls.TImage>.TKeyCollection.GetEnumerator
 0001:0002C418       UFrmMain.TDictionary<System.Integer,ExtCtrls.TImage>.TKeyEnumerator.Create
 0001:0002C400       UFrmMain.TDictionary<System.Integer,ExtCtrls.TImage>.TKeyEnumerator.DoGetCurrent
 0001:0002C40C       UFrmMain.TDictionary<System.Integer,ExtCtrls.TImage>.TKeyEnumerator.DoMoveNext
 0001:0002C3EC       UFrmMain.TDictionary<System.Integer,ExtCtrls.TImage>.TKeyEnumerator.GetCurrent
 0001:0002C460       UFrmMain.TDictionary<System.Integer,ExtCtrls.TImage>.TKeyEnumerator.MoveNext
 0001:0002C618       UFrmMain.TDictionary<System.Integer,ExtCtrls.TImage>.TPairEnumerator.Create
 0001:0002C5F4       UFrmMain.TDictionary<System.Integer,ExtCtrls.TImage>.TPairEnumerator.DoGetCurrent
 0001:0002C60C       UFrmMain.TDictionary<System.Integer,ExtCtrls.TImage>.TPairEnumerator.DoMoveNext
 0001:0002C5CC       UFrmMain.TDictionary<System.Integer,ExtCtrls.TImage>.TPairEnumerator.GetCurrent
 0001:0002C660       UFrmMain.TDictionary<System.Integer,ExtCtrls.TImage>.TPairEnumerator.MoveNext
 0001:0002C194       UFrmMain.TDictionary<System.Integer,ExtCtrls.TImage>.TrimExcess
 0001:0002C1A4       UFrmMain.TDictionary<System.Integer,ExtCtrls.TImage>.TryGetValue
 0001:0002C4C8       UFrmMain.TDictionary<System.Integer,ExtCtrls.TImage>.TValueCollection.Create
 0001:0002C4BC       UFrmMain.TDictionary<System.Integer,ExtCtrls.TImage>.TValueCollection.DoGetEnumerator
 0001:0002C4B4       UFrmMain.TDictionary<System.Integer,ExtCtrls.TImage>.TValueCollection.GetCount
 0001:0002C508       UFrmMain.TDictionary<System.Integer,ExtCtrls.TImage>.TValueCollection.GetEnumerator
 0001:0002C548       UFrmMain.TDictionary<System.Integer,ExtCtrls.TImage>.TValueEnumerator.Create
 0001:0002C530       UFrmMain.TDictionary<System.Integer,ExtCtrls.TImage>.TValueEnumerator.DoGetCurrent
 0001:0002C53C       UFrmMain.TDictionary<System.Integer,ExtCtrls.TImage>.TValueEnumerator.DoMoveNext
 0001:0002C51C       UFrmMain.TDictionary<System.Integer,ExtCtrls.TImage>.TValueEnumerator.GetCurrent
 0001:0002C590       UFrmMain.TDictionary<System.Integer,ExtCtrls.TImage>.TValueEnumerator.MoveNext
 0001:0002BCF8       UFrmMain.TDictionary<System.Integer,ExtCtrls.TImage>.ValueNotify
 0001:0002C49C       UFrmMain.TEnumerable<ExtCtrls.TImage>.GetEnumerator
 0001:0002C36C       UFrmMain.TEnumerable<System.Integer>.GetEnumerator
 0001:0002B8B0       UFrmMain.TEnumerable<TPair<System.Integer,ExtCtrls.TImage>>.GetEnumerator
 0001:0002C4A8       UFrmMain.TEnumerator<ExtCtrls.TImage>.MoveNext
 0001:0002C378       UFrmMain.TEnumerator<System.Integer>.MoveNext
 0001:0002B8BC       UFrmMain.TEnumerator<TPair<System.Integer,ExtCtrls.TImage>>.MoveNext
 0001:0002C6C0       UFrmMain.TEqualityComparer<ExtCtrls.TImage>.Default
 0001:0002C69C       UFrmMain.TEqualityComparer<System.Integer>.Default
 0001:00022694       UFrmMain.TExtension.Execute
 0001:00029680       UFrmMain.TfrmMain.aboutbtnClick
 0001:00028350       UFrmMain.TfrmMain.aboutbtnMouseDown
 0001:00028360       UFrmMain.TfrmMain.aboutbtnMouseLeave
 0001:00028404       UFrmMain.TfrmMain.aboutbtnMouseMove
 0001:000284A8       UFrmMain.TfrmMain.AddImage
 0001:00028508       UFrmMain.TfrmMain.ApplicationEvents1Exception
 0001:000287E0       UFrmMain.TfrmMain.BitBtn_ReLoadClick
 0001:00028B68       UFrmMain.TfrmMain.BitBtn_ReLoadMouseDown
 0001:00028B78       UFrmMain.TfrmMain.BitBtn_ReLoadMouseLeave
 0001:00028C1C       UFrmMain.TfrmMain.BitBtn_ReLoadMouseMove
 0001:0002974C       UFrmMain.TfrmMain.btnRootClick
 0001:00029760       UFrmMain.TfrmMain.btnToolButtonClick
 0001:00029440       UFrmMain.TfrmMain.CloseForm
 0001:0002B288       UFrmMain.TfrmMain.ClosePage
 0001:0002B2F4       UFrmMain.TfrmMain.CNTabClose
 0001:00024AC0       UFrmMain.TfrmMain.CreateMenu
 0001:00027064       UFrmMain.TfrmMain.CreateMenu
 0001:00029060       UFrmMain.TfrmMain.CreateToolButton
 0001:00027DE4       UFrmMain.TfrmMain.DeleteMenu
 0001:00024F28       UFrmMain.TfrmMain.ExitApplication
 0001:00029484       UFrmMain.TfrmMain.exitbtnClick
 0001:00029528       UFrmMain.TfrmMain.exitbtnMouseDown
 0001:00029538       UFrmMain.TfrmMain.exitbtnMouseLeave
 0001:000295DC       UFrmMain.TfrmMain.exitbtnMouseMove
 0001:000251E8       UFrmMain.TfrmMain.findmenuitem
 0001:00025524       UFrmMain.TfrmMain.findParentMenuItem
 0001:00025550       UFrmMain.TfrmMain.FindTab
 0001:000255B0       UFrmMain.TfrmMain.FormActivate
 0001:0002560C       UFrmMain.TfrmMain.FormClose
 0001:00025628       UFrmMain.TfrmMain.FormCloseQuery
 0001:0002564C       UFrmMain.TfrmMain.FormCreate
 0001:00025B14       UFrmMain.TfrmMain.FormDeactivate
 0001:00025B64       UFrmMain.TfrmMain.FormDestroy
 0001:00025B70       UFrmMain.TfrmMain.FormKeyDown
 0001:00025BC4       UFrmMain.TfrmMain.FormKeyPress
 0001:00025C00       UFrmMain.TfrmMain.FormKeyUp
 0001:00025D68       UFrmMain.TfrmMain.FormShow
 0001:00025F94       UFrmMain.TfrmMain.freePoint
 0001:0002601C       UFrmMain.TfrmMain.handMenuShortCut
 0001:00026068       UFrmMain.TfrmMain.HeartBeatTimerTimer
 0001:00028CC0       UFrmMain.TfrmMain.imgarchiveClick
 0001:00028F2C       UFrmMain.TfrmMain.imgarchiveMouseLeave
 0001:00026090       UFrmMain.TfrmMain.imgbalanceClick
 0001:00026320       UFrmMain.TfrmMain.imgbalanceMouseLeave
 0001:00026454       UFrmMain.TfrmMain.imgbaseClick
 0001:000266B8       UFrmMain.TfrmMain.imgbaseMouseLeave
 0001:00029788       UFrmMain.TfrmMain.imgcheckticketClick
 0001:000299FC       UFrmMain.TfrmMain.imgcheckticketMouseLeave
 0001:00027DE8       UFrmMain.TfrmMain.imgdispatchClick
 0001:0002807C       UFrmMain.TfrmMain.imgdispatchMouseLeave
 0001:000281B0       UFrmMain.TfrmMain.imghideClick
 0001:00029B38       UFrmMain.TfrmMain.imgpackClick
 0001:00029DA0       UFrmMain.TfrmMain.imgpackMouseLeave
 0001:00029F84       UFrmMain.TfrmMain.imgqueryClick
 0001:0002A1D4       UFrmMain.TfrmMain.imgqueryMouseLeave
 0001:0002A584       UFrmMain.TfrmMain.imgreportClick
 0001:0002A7D4       UFrmMain.TfrmMain.imgreportMouseLeave
 0001:0002A988       UFrmMain.TfrmMain.imgsaleClick
 0001:0002ABEC       UFrmMain.TfrmMain.imgsaleMouseLeave
 0001:000272D0       UFrmMain.TfrmMain.imgsystemClick
 0001:00027500       UFrmMain.TfrmMain.imgsystemMouseLeave
 0001:00027A2C       UFrmMain.TfrmMain.imgvehiclecheckClick
 0001:00027CA4       UFrmMain.TfrmMain.imgvehiclecheckMouseLeave
 0001:000267E4       UFrmMain.TfrmMain.initMenuStyle
 0001:00026B30       UFrmMain.TfrmMain.loadchrom
 0001:000269E4       UFrmMain.TfrmMain.locationTab
 0001:00026D84       UFrmMain.TfrmMain.lockscreenbtnClick
 0001:00026E50       UFrmMain.TfrmMain.lockscreenbtnMouseDown
 0001:00026E60       UFrmMain.TfrmMain.lockscreenbtnMouseLeave
 0001:00026F04       UFrmMain.TfrmMain.lockscreenbtnMouseMove
 0001:00029090       UFrmMain.TfrmMain.menuItemClick
 0001:0002921C       UFrmMain.TfrmMain.modifypwdbtnClick
 0001:000292E8       UFrmMain.TfrmMain.modifypwdbtnMouseDown
 0001:000292F8       UFrmMain.TfrmMain.modifypwdbtnMouseLeave
 0001:0002939C       UFrmMain.TfrmMain.modifypwdbtnMouseMove
 0001:00029ECC       UFrmMain.TfrmMain.pgcFormsChange
 0001:00029F28       UFrmMain.TfrmMain.pgcFormsChanging
 0001:00029F6C       UFrmMain.TfrmMain.pgcFormsMouseDown
 0001:00029F7C       UFrmMain.TfrmMain.pnlLeftMouseMove
 0001:00027DE0       UFrmMain.TfrmMain.pnlmenuMouseLeave
 0001:0002A304       UFrmMain.TfrmMain.refreshPath
 0001:0002A904       UFrmMain.TfrmMain.RzGroup1Items0Click
 0001:0002AD18       UFrmMain.TfrmMain.screenActiveControlChange
 0001:0002AD74       UFrmMain.TfrmMain.scrlbxleftResize
 0001:0002AEE8       UFrmMain.TfrmMain.ServerSocket1ClientRead
 0001:00026D74       UFrmMain.TfrmMain.setLblloginname
 0001:0002ADD0       UFrmMain.TfrmMain.ShowForm
 0001:0002B018       UFrmMain.TfrmMain.ShowForm
 0001:0002719C       UFrmMain.TfrmMain.showFormModal
 0001:0002B1D0       UFrmMain.TfrmMain.showFormModal
 0001:00027208       UFrmMain.TfrmMain.ShowStatus
 0001:0002B418       UFrmMain.TfrmMain.SplitString
 0001:00027250       UFrmMain.TfrmMain.StatusBarDrawPanel
 0001:00027630       UFrmMain.TfrmMain.Timer1Timer
 0001:0002776C       UFrmMain.TfrmMain.tmr1Timer
 0001:00027828       UFrmMain.TfrmMain.tmrTimeTimer
 0001:00027960       UFrmMain.TfrmMain.tmrwebmenuTimer
 0001:0002B4EC       UFrmMain.TNovaSplitter.Create
 0001:0002B52C       UFrmMain.TNovaSplitter.DblClick
 0001:0002B598       UFrmMain.TNovaSplitter.FindControl
 0001:0002B714       UFrmMain.TNovaSplitter.MouseDown
 0001:0002B73C       UFrmMain.TNovaSplitter.MouseMove
 0001:0002B760       UFrmMain.TNovaSplitter.MouseUp
 0001:0002B8A8       UFrmMain.TPair<System.Integer,ExtCtrls.TImage>.Create
 0002:00000228       UFrmMain.UFrmMain
 0001:0002B89C       UFrmMain.UFrmMain$ActRec.$0$Body
 0001:0002C6E4       UFrmSplash..TfrmSplash
 0004:000001EC       UPluginMgr..6
 0001:00034C2C       UPluginMgr..TComparer<FunctionItemIntf.IFunctionItem>
 0001:00034EC8       UPluginMgr..TComparer<FunctionItemIntf.TFunctionPermission>
 0001:00035164       UPluginMgr..TComparer<UPluginMgr.TPluginLoader>
 0001:00035338       UPluginMgr..TDelegatedComparer<FunctionItemIntf.IFunctionItem>
 0001:000354DC       UPluginMgr..TDelegatedComparer<FunctionItemIntf.TFunctionPermission>
 0001:0003568C       UPluginMgr..TDelegatedComparer<UPluginMgr.TPluginLoader>
 0001:0002DB78       UPluginMgr..TEnumerable<FunctionItemIntf.IFunctionItem>
 0001:0002EA68       UPluginMgr..TEnumerable<FunctionItemIntf.TFunctionPermission>
 0001:0002FB88       UPluginMgr..TEnumerable<UPluginMgr.TPluginLoader>
 0001:0002DA40       UPluginMgr..TEnumerator<FunctionItemIntf.IFunctionItem>
 0001:0002E924       UPluginMgr..TEnumerator<FunctionItemIntf.TFunctionPermission>
 0001:0002FA5C       UPluginMgr..TEnumerator<UPluginMgr.TPluginLoader>
 0001:0002DFD4       UPluginMgr..TList<FunctionItemIntf.IFunctionItem>
 0001:0002DE28       UPluginMgr..TList<FunctionItemIntf.IFunctionItem>.TEnumerator
 0001:0002EEF4       UPluginMgr..TList<FunctionItemIntf.TFunctionPermission>
 0001:0002ED3C       UPluginMgr..TList<FunctionItemIntf.TFunctionPermission>.TEnumerator
 0001:0002FFBC       UPluginMgr..TList<UPluginMgr.TPluginLoader>
 0001:0002FE1C       UPluginMgr..TList<UPluginMgr.TPluginLoader>.TEnumerator
 0001:0002F830       UPluginMgr..TObjectList<FunctionItemIntf.TFunctionPermission>
 0001:0002D14C       UPluginMgr..TPluginLoader
 0001:0002D580       UPluginMgr..TPluginMgr
 0001:00031DF8       UPluginMgr.Finalization
 0004:000001E8       UPluginMgr.PluginMgr
 0001:00034428       UPluginMgr.TArray.BinarySearch<FunctionItemIntf.IFunctionItem>
 0001:00034598       UPluginMgr.TArray.BinarySearch<FunctionItemIntf.TFunctionPermission>
 0001:00034708       UPluginMgr.TArray.BinarySearch<UPluginMgr.TPluginLoader>
 0001:00034810       UPluginMgr.TArray.QuickSort<FunctionItemIntf.IFunctionItem>
 0001:00034988       UPluginMgr.TArray.QuickSort<FunctionItemIntf.TFunctionPermission>
 0001:00034AA8       UPluginMgr.TArray.QuickSort<UPluginMgr.TPluginLoader>
 0001:000343C0       UPluginMgr.TArray.Sort<FunctionItemIntf.IFunctionItem>
 0001:00034530       UPluginMgr.TArray.Sort<FunctionItemIntf.TFunctionPermission>
 0001:000346A0       UPluginMgr.TArray.Sort<UPluginMgr.TPluginLoader>
 0001:00034D8C       UPluginMgr.TComparer<FunctionItemIntf.IFunctionItem>.Compare
 0001:00034394       UPluginMgr.TComparer<FunctionItemIntf.IFunctionItem>.Construct
 0001:00034370       UPluginMgr.TComparer<FunctionItemIntf.IFunctionItem>.Default
 0001:00035030       UPluginMgr.TComparer<FunctionItemIntf.TFunctionPermission>.Compare
 0001:00034504       UPluginMgr.TComparer<FunctionItemIntf.TFunctionPermission>.Construct
 0001:000344E0       UPluginMgr.TComparer<FunctionItemIntf.TFunctionPermission>.Default
 0001:000352C0       UPluginMgr.TComparer<UPluginMgr.TPluginLoader>.Compare
 0001:00034674       UPluginMgr.TComparer<UPluginMgr.TPluginLoader>.Construct
 0001:00034650       UPluginMgr.TComparer<UPluginMgr.TPluginLoader>.Default
 0001:00034800       UPluginMgr.TDelegatedComparer<FunctionItemIntf.IFunctionItem>.Compare
 0001:000347C0       UPluginMgr.TDelegatedComparer<FunctionItemIntf.IFunctionItem>.Create
 0001:00034978       UPluginMgr.TDelegatedComparer<FunctionItemIntf.TFunctionPermission>.Compare
 0001:00034938       UPluginMgr.TDelegatedComparer<FunctionItemIntf.TFunctionPermission>.Create
 0001:00034A98       UPluginMgr.TDelegatedComparer<UPluginMgr.TPluginLoader>.Compare
 0001:00034A58       UPluginMgr.TDelegatedComparer<UPluginMgr.TPluginLoader>.Create
 0001:00031E1C       UPluginMgr.TEnumerable<FunctionItemIntf.IFunctionItem>.GetEnumerator
 0001:00032B4C       UPluginMgr.TEnumerable<FunctionItemIntf.TFunctionPermission>.GetEnumerator
 0001:000337DC       UPluginMgr.TEnumerable<UPluginMgr.TPluginLoader>.GetEnumerator
 0001:00031E28       UPluginMgr.TEnumerator<FunctionItemIntf.IFunctionItem>.MoveNext
 0001:00032B58       UPluginMgr.TEnumerator<FunctionItemIntf.TFunctionPermission>.MoveNext
 0001:000337E8       UPluginMgr.TEnumerator<UPluginMgr.TPluginLoader>.MoveNext
 0001:00032238       UPluginMgr.TList<FunctionItemIntf.IFunctionItem>.Add
 0001:000322A4       UPluginMgr.TList<FunctionItemIntf.IFunctionItem>.AddRange
 0001:00032278       UPluginMgr.TList<FunctionItemIntf.IFunctionItem>.AddRange
 0001:00032294       UPluginMgr.TList<FunctionItemIntf.IFunctionItem>.AddRange
 0001:00032A00       UPluginMgr.TList<FunctionItemIntf.IFunctionItem>.BinarySearch
 0001:00032A40       UPluginMgr.TList<FunctionItemIntf.IFunctionItem>.BinarySearch
 0001:00032868       UPluginMgr.TList<FunctionItemIntf.IFunctionItem>.Clear
 0001:00032884       UPluginMgr.TList<FunctionItemIntf.IFunctionItem>.Contains
 0001:000320E0       UPluginMgr.TList<FunctionItemIntf.IFunctionItem>.Create
 0001:00032174       UPluginMgr.TList<FunctionItemIntf.IFunctionItem>.Create
 0001:00032068       UPluginMgr.TList<FunctionItemIntf.IFunctionItem>.Create
 0001:0003256C       UPluginMgr.TList<FunctionItemIntf.IFunctionItem>.Delete
 0001:00032578       UPluginMgr.TList<FunctionItemIntf.IFunctionItem>.DeleteRange
 0001:00032204       UPluginMgr.TList<FunctionItemIntf.IFunctionItem>.Destroy
 0001:00031F78       UPluginMgr.TList<FunctionItemIntf.IFunctionItem>.DoDelete
 0001:00032040       UPluginMgr.TList<FunctionItemIntf.IFunctionItem>.DoGetEnumerator
 0001:000326EC       UPluginMgr.TList<FunctionItemIntf.IFunctionItem>.Exchange
 0001:000326AC       UPluginMgr.TList<FunctionItemIntf.IFunctionItem>.Extract
 0001:00032834       UPluginMgr.TList<FunctionItemIntf.IFunctionItem>.First
 0001:00031E34       UPluginMgr.TList<FunctionItemIntf.IFunctionItem>.GetCapacity
 0001:00032A90       UPluginMgr.TList<FunctionItemIntf.IFunctionItem>.GetEnumerator
 0001:00031ECC       UPluginMgr.TList<FunctionItemIntf.IFunctionItem>.GetItem
 0001:00031F0C       UPluginMgr.TList<FunctionItemIntf.IFunctionItem>.Grow
 0001:00031F48       UPluginMgr.TList<FunctionItemIntf.IFunctionItem>.GrowCheck
 0001:000328A0       UPluginMgr.TList<FunctionItemIntf.IFunctionItem>.IndexOf
 0001:000322B4       UPluginMgr.TList<FunctionItemIntf.IFunctionItem>.Insert
 0001:000324A4       UPluginMgr.TList<FunctionItemIntf.IFunctionItem>.InsertRange
 0001:00032340       UPluginMgr.TList<FunctionItemIntf.IFunctionItem>.InsertRange
 0001:00032420       UPluginMgr.TList<FunctionItemIntf.IFunctionItem>.InsertRange
 0001:0003284C       UPluginMgr.TList<FunctionItemIntf.IFunctionItem>.Last
 0001:000328E8       UPluginMgr.TList<FunctionItemIntf.IFunctionItem>.LastIndexOf
 0001:00032758       UPluginMgr.TList<FunctionItemIntf.IFunctionItem>.Move
 0001:0003204C       UPluginMgr.TList<FunctionItemIntf.IFunctionItem>.Notify
 0001:00032548       UPluginMgr.TList<FunctionItemIntf.IFunctionItem>.Remove
 0001:00032928       UPluginMgr.TList<FunctionItemIntf.IFunctionItem>.Reverse
 0001:00031E44       UPluginMgr.TList<FunctionItemIntf.IFunctionItem>.SetCapacity
 0001:00031E78       UPluginMgr.TList<FunctionItemIntf.IFunctionItem>.SetCount
 0001:000329A0       UPluginMgr.TList<FunctionItemIntf.IFunctionItem>.Sort
 0001:000329D0       UPluginMgr.TList<FunctionItemIntf.IFunctionItem>.Sort
 0001:00032AE4       UPluginMgr.TList<FunctionItemIntf.IFunctionItem>.TEnumerator.Create
 0001:00032AC0       UPluginMgr.TList<FunctionItemIntf.IFunctionItem>.TEnumerator.DoGetCurrent
 0001:00032AD8       UPluginMgr.TList<FunctionItemIntf.IFunctionItem>.TEnumerator.DoMoveNext
 0001:00032AA4       UPluginMgr.TList<FunctionItemIntf.IFunctionItem>.TEnumerator.GetCurrent
 0001:00032B2C       UPluginMgr.TList<FunctionItemIntf.IFunctionItem>.TEnumerator.MoveNext
 0001:00032A80       UPluginMgr.TList<FunctionItemIntf.IFunctionItem>.TrimExcess
 0001:00032F14       UPluginMgr.TList<FunctionItemIntf.TFunctionPermission>.Add
 0001:00032F68       UPluginMgr.TList<FunctionItemIntf.TFunctionPermission>.AddRange
 0001:00032F78       UPluginMgr.TList<FunctionItemIntf.TFunctionPermission>.AddRange
 0001:00032F4C       UPluginMgr.TList<FunctionItemIntf.TFunctionPermission>.AddRange
 0001:000335EC       UPluginMgr.TList<FunctionItemIntf.TFunctionPermission>.BinarySearch
 0001:000335AC       UPluginMgr.TList<FunctionItemIntf.TFunctionPermission>.BinarySearch
 0001:0003345C       UPluginMgr.TList<FunctionItemIntf.TFunctionPermission>.Clear
 0001:00033478       UPluginMgr.TList<FunctionItemIntf.TFunctionPermission>.Contains
 0001:00032D44       UPluginMgr.TList<FunctionItemIntf.TFunctionPermission>.Create
 0001:00032E50       UPluginMgr.TList<FunctionItemIntf.TFunctionPermission>.Create
 0001:00032DBC       UPluginMgr.TList<FunctionItemIntf.TFunctionPermission>.Create
 0001:0003320C       UPluginMgr.TList<FunctionItemIntf.TFunctionPermission>.Delete
 0001:00033218       UPluginMgr.TList<FunctionItemIntf.TFunctionPermission>.DeleteRange
 0001:00032EE0       UPluginMgr.TList<FunctionItemIntf.TFunctionPermission>.Destroy
 0001:00032C94       UPluginMgr.TList<FunctionItemIntf.TFunctionPermission>.DoDelete
 0001:00032D1C       UPluginMgr.TList<FunctionItemIntf.TFunctionPermission>.DoGetEnumerator
 0001:0003337C       UPluginMgr.TList<FunctionItemIntf.TFunctionPermission>.Exchange
 0001:0003334C       UPluginMgr.TList<FunctionItemIntf.TFunctionPermission>.Extract
 0001:00033440       UPluginMgr.TList<FunctionItemIntf.TFunctionPermission>.First
 0001:00032B64       UPluginMgr.TList<FunctionItemIntf.TFunctionPermission>.GetCapacity
 0001:0003363C       UPluginMgr.TList<FunctionItemIntf.TFunctionPermission>.GetEnumerator
 0001:00032BFC       UPluginMgr.TList<FunctionItemIntf.TFunctionPermission>.GetItem
 0001:00032C28       UPluginMgr.TList<FunctionItemIntf.TFunctionPermission>.Grow
 0001:00032C64       UPluginMgr.TList<FunctionItemIntf.TFunctionPermission>.GrowCheck
 0001:00033494       UPluginMgr.TList<FunctionItemIntf.TFunctionPermission>.IndexOf
 0001:00032F88       UPluginMgr.TList<FunctionItemIntf.TFunctionPermission>.Insert
 0001:00033170       UPluginMgr.TList<FunctionItemIntf.TFunctionPermission>.InsertRange
 0001:000330F8       UPluginMgr.TList<FunctionItemIntf.TFunctionPermission>.InsertRange
 0001:0003300C       UPluginMgr.TList<FunctionItemIntf.TFunctionPermission>.InsertRange
 0001:0003344C       UPluginMgr.TList<FunctionItemIntf.TFunctionPermission>.Last
 0001:000334DC       UPluginMgr.TList<FunctionItemIntf.TFunctionPermission>.LastIndexOf
 0001:0003339C       UPluginMgr.TList<FunctionItemIntf.TFunctionPermission>.Move
 0001:00032D28       UPluginMgr.TList<FunctionItemIntf.TFunctionPermission>.Notify
 0001:000331E8       UPluginMgr.TList<FunctionItemIntf.TFunctionPermission>.Remove
 0001:0003351C       UPluginMgr.TList<FunctionItemIntf.TFunctionPermission>.Reverse
 0001:00032B74       UPluginMgr.TList<FunctionItemIntf.TFunctionPermission>.SetCapacity
 0001:00032BA8       UPluginMgr.TList<FunctionItemIntf.TFunctionPermission>.SetCount
 0001:0003354C       UPluginMgr.TList<FunctionItemIntf.TFunctionPermission>.Sort
 0001:0003357C       UPluginMgr.TList<FunctionItemIntf.TFunctionPermission>.Sort
 0001:00033678       UPluginMgr.TList<FunctionItemIntf.TFunctionPermission>.TEnumerator.Create
 0001:00033660       UPluginMgr.TList<FunctionItemIntf.TFunctionPermission>.TEnumerator.DoGetCurrent
 0001:0003366C       UPluginMgr.TList<FunctionItemIntf.TFunctionPermission>.TEnumerator.DoMoveNext
 0001:00033650       UPluginMgr.TList<FunctionItemIntf.TFunctionPermission>.TEnumerator.GetCurrent
 0001:000336C0       UPluginMgr.TList<FunctionItemIntf.TFunctionPermission>.TEnumerator.MoveNext
 0001:0003362C       UPluginMgr.TList<FunctionItemIntf.TFunctionPermission>.TrimExcess
 0001:00033BA4       UPluginMgr.TList<UPluginMgr.TPluginLoader>.Add
 0001:00033BDC       UPluginMgr.TList<UPluginMgr.TPluginLoader>.AddRange
 0001:00033BF8       UPluginMgr.TList<UPluginMgr.TPluginLoader>.AddRange
 0001:00033C08       UPluginMgr.TList<UPluginMgr.TPluginLoader>.AddRange
 0001:0003427C       UPluginMgr.TList<UPluginMgr.TPluginLoader>.BinarySearch
 0001:0003423C       UPluginMgr.TList<UPluginMgr.TPluginLoader>.BinarySearch
 0001:000340EC       UPluginMgr.TList<UPluginMgr.TPluginLoader>.Clear
 0001:00034108       UPluginMgr.TList<UPluginMgr.TPluginLoader>.Contains
 0001:00033AE0       UPluginMgr.TList<UPluginMgr.TPluginLoader>.Create
 0001:00033A4C       UPluginMgr.TList<UPluginMgr.TPluginLoader>.Create
 0001:000339D4       UPluginMgr.TList<UPluginMgr.TPluginLoader>.Create
 0001:00033E9C       UPluginMgr.TList<UPluginMgr.TPluginLoader>.Delete
 0001:00033EA8       UPluginMgr.TList<UPluginMgr.TPluginLoader>.DeleteRange
 0001:00033B70       UPluginMgr.TList<UPluginMgr.TPluginLoader>.Destroy
 0001:00033924       UPluginMgr.TList<UPluginMgr.TPluginLoader>.DoDelete
 0001:000339AC       UPluginMgr.TList<UPluginMgr.TPluginLoader>.DoGetEnumerator
 0001:0003400C       UPluginMgr.TList<UPluginMgr.TPluginLoader>.Exchange
 0001:00033FDC       UPluginMgr.TList<UPluginMgr.TPluginLoader>.Extract
 0001:000340D0       UPluginMgr.TList<UPluginMgr.TPluginLoader>.First
 0001:000337F4       UPluginMgr.TList<UPluginMgr.TPluginLoader>.GetCapacity
 0001:000342CC       UPluginMgr.TList<UPluginMgr.TPluginLoader>.GetEnumerator
 0001:0003388C       UPluginMgr.TList<UPluginMgr.TPluginLoader>.GetItem
 0001:000338B8       UPluginMgr.TList<UPluginMgr.TPluginLoader>.Grow
 0001:000338F4       UPluginMgr.TList<UPluginMgr.TPluginLoader>.GrowCheck
 0001:00034124       UPluginMgr.TList<UPluginMgr.TPluginLoader>.IndexOf
 0001:00033C18       UPluginMgr.TList<UPluginMgr.TPluginLoader>.Insert
 0001:00033C9C       UPluginMgr.TList<UPluginMgr.TPluginLoader>.InsertRange
 0001:00033E00       UPluginMgr.TList<UPluginMgr.TPluginLoader>.InsertRange
 0001:00033D88       UPluginMgr.TList<UPluginMgr.TPluginLoader>.InsertRange
 0001:000340DC       UPluginMgr.TList<UPluginMgr.TPluginLoader>.Last
 0001:0003416C       UPluginMgr.TList<UPluginMgr.TPluginLoader>.LastIndexOf
 0001:0003402C       UPluginMgr.TList<UPluginMgr.TPluginLoader>.Move
 0001:000339B8       UPluginMgr.TList<UPluginMgr.TPluginLoader>.Notify
 0001:00033E78       UPluginMgr.TList<UPluginMgr.TPluginLoader>.Remove
 0001:000341AC       UPluginMgr.TList<UPluginMgr.TPluginLoader>.Reverse
 0001:00033804       UPluginMgr.TList<UPluginMgr.TPluginLoader>.SetCapacity
 0001:00033838       UPluginMgr.TList<UPluginMgr.TPluginLoader>.SetCount
 0001:000341DC       UPluginMgr.TList<UPluginMgr.TPluginLoader>.Sort
 0001:0003420C       UPluginMgr.TList<UPluginMgr.TPluginLoader>.Sort
 0001:00034308       UPluginMgr.TList<UPluginMgr.TPluginLoader>.TEnumerator.Create
 0001:000342F0       UPluginMgr.TList<UPluginMgr.TPluginLoader>.TEnumerator.DoGetCurrent
 0001:000342FC       UPluginMgr.TList<UPluginMgr.TPluginLoader>.TEnumerator.DoMoveNext
 0001:000342E0       UPluginMgr.TList<UPluginMgr.TPluginLoader>.TEnumerator.GetCurrent
 0001:00034350       UPluginMgr.TList<UPluginMgr.TPluginLoader>.TEnumerator.MoveNext
 0001:000342BC       UPluginMgr.TList<UPluginMgr.TPluginLoader>.TrimExcess
 0001:00033754       UPluginMgr.TObjectList<FunctionItemIntf.TFunctionPermission>.Create
 0001:00033798       UPluginMgr.TObjectList<FunctionItemIntf.TFunctionPermission>.Create
 0001:00033710       UPluginMgr.TObjectList<FunctionItemIntf.TFunctionPermission>.Create
 0001:000336E0       UPluginMgr.TObjectList<FunctionItemIntf.TFunctionPermission>.Notify
 0001:000308E0       UPluginMgr.TPluginLoader.Create
 0001:00030ABC       UPluginMgr.TPluginLoader.Destroy
 0001:00030B2C       UPluginMgr.TPluginLoader.getFunctionPermissionBykey
 0001:00030C48       UPluginMgr.TPluginLoader.getFunctionPermissionBykey
 0001:00030CAC       UPluginMgr.TPluginLoader.init
 0001:00030CFC       UPluginMgr.TPluginLoader.QueryInterface
 0001:00030D24       UPluginMgr.TPluginLoader.RegisterFunctionItem
 0001:00030D78       UPluginMgr.TPluginLoader._AddRef
 0001:00030D8C       UPluginMgr.TPluginLoader._Release
 0001:00030DA0       UPluginMgr.TPluginMgr.addorsetPlugin
 0001:00030E84       UPluginMgr.TPluginMgr.Create
 0001:00030F7C       UPluginMgr.TPluginMgr.Destroy
 0001:00030FD4       UPluginMgr.TPluginMgr.exec
 0001:0003110C       UPluginMgr.TPluginMgr.findFunctionByGUID
 0001:00031224       UPluginMgr.TPluginMgr.findPluginLoaderByGUID
 0001:0003135C       UPluginMgr.TPluginMgr.getFunctionPermission
 0001:000313C0       UPluginMgr.TPluginMgr.getFunctionPermission
 0001:00031424       UPluginMgr.TPluginMgr.getFunctionPermission
 0001:000314BC       UPluginMgr.TPluginMgr.GetPackageList
 0001:00031720       UPluginMgr.TPluginMgr.Init
 0001:0003191C       UPluginMgr.TPluginMgr.LoadPackage
 0001:00031B9C       UPluginMgr.TPluginMgr.QueryInterface
 0001:00031BC4       UPluginMgr.TPluginMgr.registerFunctionPermission
 0001:00031C98       UPluginMgr.TPluginMgr.registerSubFunctionPermission
 0001:00031D60       UPluginMgr.TPluginMgr.WriteErrFmt
 0001:00031DD0       UPluginMgr.TPluginMgr._AddRef
 0001:00031DE4       UPluginMgr.TPluginMgr._Release
 0002:00000A48       UPluginMgr.UPluginMgr
 0001:000004F0       UxTheme.Finalization
 0002:00000010       UxTheme.UxTheme
 0001:000009E0       Variants.Finalization
 0002:00000070       Variants.Variants
 0001:000009E8       VarUtils.Finalization
 0002:00000078       VarUtils.VarUtils
 0001:00001078       WideStrings.Finalization
 0002:00000130       WideStrings.WideStrings
 0004:00000004       Windows..2
 0001:0000067C       Windows.BeginDeferWindowPos
 0001:00000590       Windows.CloseHandle
 0001:00000598       Windows.CreateFileMapping
 0001:00000684       Windows.DeferWindowPos
 0001:0000068C       Windows.EndDeferWindowPos
 0001:000005A0       Windows.FileTimeToLocalFileTime
 0001:000005A8       Windows.FileTimeToSystemTime
 0001:00000708       Windows.Finalization
 0001:000005B0       Windows.FreeLibrary
 0001:00000694       Windows.GetCursorPos
 0001:000005C8       Windows.GetProcAddress
 0001:000005D0       Windows.GetProcAddress
 0001:00000644       Windows.GetVersionEx
 0004:00000008       Windows.HtmlHelpModule
 0001:000006CC       Windows.InitVersionInfo
 0001:000005B8       Windows.InterlockedDecrement
 0001:000005C0       Windows.InterlockedIncrement
 0001:0000069C       Windows.KillTimer
 0001:0000064C       Windows.LoadLibrary
 0001:00000654       Windows.MapViewOfFile
 0001:000006A4       Windows.MessageBeep
 0001:0000065C       Windows.OpenFileMapping
 0001:00000664       Windows.OutputDebugString
 0001:000006AC       Windows.PostMessage
 0001:000006B4       Windows.PtInRect
 0001:000006BC       Windows.SendMessage
 0001:000006C4       Windows.SetTimer
 0001:0000066C       Windows.Sleep
 0001:00000674       Windows.UnmapViewOfFile
 0003:00000024       Windows.Win32MajorVersion
 0003:00000028       Windows.Win32MinorVersion
 0003:0000002C       Windows.Win32Platform
 0002:00000018       Windows.Windows
 0001:0001BE00       WinSkinData.Finalization
 0001:0001BDE8       WinSkinData.TSkinData.AddNestForm
 0001:0001BDF0       WinSkinData.TSkinData.LoadFromFile
 0001:0001BDF8       WinSkinData.TSkinData.SetActive
 0002:000001C4       WinSkinData.WinSkinData
 0001:0001BE30       WinSkinDlg.Finalization
 0002:000001EC       WinSkinDlg.WinSkinDlg
 0001:0001BE38       WinSkinForm.Finalization
 0002:000001F4       WinSkinForm.WinSkinForm
 0001:0001BE08       WinSkinIni.Finalization
 0002:000001CC       WinSkinIni.WinSkinIni


  Address             Publics by Value

 0001:00000000       System.@GetMem
 0001:00000008       System.@FreeMem
 0001:00000010       System.Move
 0001:00000018       System.ParamStr
 0001:00000020       System.Randomize
 0001:00000028       System.Random
 0001:00000030       System.Set8087CW
 0001:00000038       System.Get8087CW
 0001:00000040       System.@AbstractError
 0001:00000048       System.@FillChar
 0001:00000050       System.TObject.ClassName
 0001:00000058       System.TObject.NewInstance
 0001:00000060       System.TObject.FreeInstance
 0001:00000068       System.TObject.Create
 0001:00000070       System.TObject.Destroy
 0001:00000078       System.TObject.Free
 0001:00000080       System.TObject.Equals
 0001:00000088       System.TObject.GetHashCode
 0001:00000090       System.TObject.GetInterface
 0001:00000098       System.@IsClass
 0001:000000A0       System.@AsClass
 0001:000000A8       System.@CallDynaInst
 0001:000000B0       System.@CallDynaClass
 0001:000000B8       System.TObject.InheritsFrom
 0001:000000C0       System.TObject.SafeCallException
 0001:000000C8       System.TObject.ToString
 0001:000000D0       System.TObject.DefaultHandler
 0001:000000D8       System.TObject.AfterConstruction
 0001:000000E0       System.TObject.BeforeDestruction
 0001:000000E8       System.TObject.Dispatch
 0001:000000F0       System.@ClassCreate
 0001:000000F8       System.@ClassDestroy
 0001:00000100       System.@AfterConstruction
 0001:00000108       System.@BeforeDestruction
 0001:00000110       System.@HandleAnyException
 0001:00000118       System.@HandleOnException
 0001:00000120       System.@HandleFinally
 0001:00000128       System.@RaiseExcept
 0001:00000130       System.@DoneExcept
 0001:00000138       System.@StartExe
 0001:00000140       System.@Halt0
 0001:00000148       System.@Assert
 0001:00000150       System.@LStrClr
 0001:00000158       System.@EnsureUnicodeString
 0001:00000160       System.@EnsureAnsiString
 0001:00000168       System.@LStrFromPWChar
 0001:00000170       System.@LStrLen
 0001:00000178       System.@LStrToPChar
 0001:00000180       System.@UniqueStringA
 0001:00000188       System.@LStrSetLength
 0001:00000190       System.@UStrAddRef
 0001:00000198       System.@UStrClr
 0001:000001A0       System.@UStrArrayClr
 0001:000001A8       System.@UStrAsg
 0001:000001B0       System.@UStrLAsg
 0001:000001B8       System.@UStrToPWChar
 0001:000001C0       System.@UStrFromPWCharLen
 0001:000001C8       System.@UStrFromWChar
 0001:000001D0       System.@UStrFromLStr
 0001:000001D8       System.@LStrFromUStr
 0001:000001E0       System.@UStrLen
 0001:000001E8       System.@UStrSetLength
 0001:000001F0       System.@UStrCat
 0001:000001F8       System.@UStrCat3
 0001:00000200       System.@UStrCatN
 0001:00000208       System.@UStrEqual
 0001:00000210       System.@UStrCopy
 0001:00000218       System.@UStrDelete
 0001:00000220       System.Pos
 0001:00000228       System.@InitializeRecord
 0001:00000230       System.@FinalizeRecord
 0001:00000238       System.@FinalizeArray
 0001:00000240       System.@CopyRecord
 0001:00000248       System.@DynArrayLength
 0001:00000250       System.@DynArrayHigh
 0001:00000258       System.@DynArraySetLength
 0001:00000260       System.@DynArrayClear
 0001:00000268       System.@DynArrayAsg
 0001:00000270       System.RegisterModule
 0001:00000278       System.@IntfClear
 0001:00000280       System.@IntfCopy
 0001:00000288       System.@IntfCast
 0001:00000290       System.@IntfAddRef
 0001:00000298       System.TInterfacedObject.AfterConstruction
 0001:000002A0       System.TInterfacedObject.BeforeDestruction
 0001:000002A8       System.TInterfacedObject.NewInstance
 0001:000002B0       System.TInterfacedObject.QueryInterface
 0001:000002B8       System.TInterfacedObject._AddRef
 0001:000002C0       System.TInterfacedObject._Release
 0001:000002C8       System.Finalization
 0001:000002D0       SysInit.GetModuleHandle
 0001:000002D8       SysInit.InitializeModule
 0001:000002E4       SysInit.@InitExe
 0001:00000330       Forms.GetParentForm
 0001:00000338       Forms.TScrollingWinControl.AutoScrollEnabled
 0001:00000340       Forms.TScrollingWinControl.DoGesture
 0001:00000348       Forms.TScrollingWinControl.DoGetGestureOptions
 0001:00000350       Forms.TScrollingWinControl.AutoScrollInView
 0001:00000358       Forms.TScrollingWinControl.AdjustClientRect
 0001:00000360       Forms.TCustomForm.Create
 0001:00000368       Forms.TCustomForm.AfterConstruction
 0001:00000370       Forms.TCustomForm.CreateNew
 0001:00000378       Forms.TCustomForm.BeforeDestruction
 0001:00000380       Forms.TCustomForm.Destroy
 0001:00000388       Forms.TCustomForm.DoCreate
 0001:00000390       Forms.TCustomForm.DoDestroy
 0001:00000398       Forms.TCustomForm.Loaded
 0001:000003A0       Forms.TCustomForm.Notification
 0001:000003A8       Forms.TCustomForm.ReadState
 0001:000003B0       Forms.TCustomForm.DefineProperties
 0001:000003B8       Forms.TCustomForm.GetClientRect
 0001:000003C0       Forms.TCustomForm.GetFloating
 0001:000003C8       Forms.TCustomForm.SetParentBiDiMode
 0001:000003D0       Forms.TCustomForm.WantChildKey
 0001:000003D8       Forms.TCustomForm.SetParent
 0001:000003E0       Forms.TCustomForm.ValidateRename
 0001:000003E8       Forms.TCustomForm.WndProc
 0001:000003F0       Forms.TCustomForm.AlignControls
 0001:000003F8       Forms.TCustomForm.SetBorderStyle
 0001:00000400       Forms.TCustomForm.SetFormStyle
 0001:00000408       Forms.TCustomForm.SetMenu
 0001:00000410       Forms.TCustomForm.CreateParams
 0001:00000418       Forms.TCustomForm.CreateWnd
 0001:00000420       Forms.TCustomForm.CreateWindowHandle
 0001:00000428       Forms.TCustomForm.DestroyHandle
 0001:00000430       Forms.TCustomForm.DestroyWindowHandle
 0001:00000438       Forms.TCustomForm.DefaultHandler
 0001:00000440       Forms.TCustomForm.SetFocusedControl
 0001:00000448       Forms.TCustomForm.PaintWindow
 0001:00000450       Forms.TCustomForm.Resizing
 0001:00000458       Forms.TCustomForm.Close
 0001:00000460       Forms.TCustomForm.CloseQuery
 0001:00000468       Forms.TCustomForm.Hide
 0001:00000470       Forms.TCustomForm.Show
 0001:00000478       Forms.TCustomForm.SetFocus
 0001:00000480       Forms.TCustomForm.ShowModal
 0001:00000488       Forms.TCustomForm.UpdateActions
 0001:00000490       Forms.TCustomForm.RequestAlign
 0001:00000498       Forms.TCustomForm.QueryInterface
 0001:000004A0       Forms.TApplication.GetTitle
 0001:000004A8       Forms.TApplication.SetTitle
 0001:000004B0       Forms.TApplication.ProcessMessages
 0001:000004B8       Forms.TApplication.Initialize
 0001:000004C0       Forms.TApplication.CreateForm
 0001:000004C8       Forms.TApplication.Run
 0001:000004D0       Forms.TApplication.Terminate
 0001:000004D8       Forms.TApplication.MessageBox
 0001:000004E0       Forms.TApplication.SetMainFormOnTaskBar
 0001:000004E8       Forms.Finalization
 0001:000004F0       UxTheme.Finalization
 0001:00000590       Windows.CloseHandle
 0001:00000598       Windows.CreateFileMapping
 0001:000005A0       Windows.FileTimeToLocalFileTime
 0001:000005A8       Windows.FileTimeToSystemTime
 0001:000005B0       Windows.FreeLibrary
 0001:000005B8       Windows.InterlockedDecrement
 0001:000005C0       Windows.InterlockedIncrement
 0001:000005C8       Windows.GetProcAddress
 0001:000005D0       Windows.GetProcAddress
 0001:00000644       Windows.GetVersionEx
 0001:0000064C       Windows.LoadLibrary
 0001:00000654       Windows.MapViewOfFile
 0001:0000065C       Windows.OpenFileMapping
 0001:00000664       Windows.OutputDebugString
 0001:0000066C       Windows.Sleep
 0001:00000674       Windows.UnmapViewOfFile
 0001:0000067C       Windows.BeginDeferWindowPos
 0001:00000684       Windows.DeferWindowPos
 0001:0000068C       Windows.EndDeferWindowPos
 0001:00000694       Windows.GetCursorPos
 0001:0000069C       Windows.KillTimer
 0001:000006A4       Windows.MessageBeep
 0001:000006AC       Windows.PostMessage
 0001:000006B4       Windows.PtInRect
 0001:000006BC       Windows.SendMessage
 0001:000006C4       Windows.SetTimer
 0001:000006CC       Windows.InitVersionInfo
 0001:00000708       Windows.Finalization
 0001:00000728       SyncObjs.TCriticalSection.Create
 0001:00000730       SyncObjs.TCriticalSection.Enter
 0001:00000738       SyncObjs.TCriticalSection.Leave
 0001:00000740       SyncObjs.Finalization
 0001:00000748       Classes.Point
 0001:00000750       Classes.Rect
 0001:00000758       Classes.ExtractStrings
 0001:00000760       Classes.TList.Sort
 0001:00000768       Classes.TInterfaceList.Create
 0001:00000770       Classes.TPersistent.Destroy
 0001:00000778       Classes.TPersistent.Assign
 0001:00000780       Classes.TPersistent.AssignTo
 0001:00000788       Classes.TPersistent.DefineProperties
 0001:00000790       Classes.TCollection.GetCount
 0001:00000798       Classes.TStrings.Equals
 0001:000007A0       Classes.TStrings.SetDelimitedText
 0001:000007A8       Classes.TStrings.SetDelimiter
 0001:000007B0       Classes.TStringList.Create
 0001:000007B8       Classes.TStream.GetPosition
 0001:000007C0       Classes.TStream.SetPosition
 0001:000007C8       Classes.TFileStream.Create
 0001:000007D0       Classes.TCustomMemoryStream.SaveToStream
 0001:000007D8       Classes.TStringStream.Create
 0001:000007E0       Classes.TStringStream.GetDataString
 0001:000007E8       Classes.TResourceStream.Create
 0001:000007F0       Classes.TThread.Destroy@
 0001:000007F8       Classes.TThread.Synchronize
 0001:00000800       Classes.TComponent.BeforeDestruction
 0001:00000808       Classes.TComponent.ReadState
 0001:00000810       Classes.TComponent.WriteState
 0001:00000818       Classes.TComponent.ValidateRename
 0001:00000820       Classes.TComponent.SetName
 0001:00000828       Classes.TComponent.UpdateAction
 0001:00000830       Classes.TComponent.SafeCallException
 0001:00000838       Classes.TComponent.UpdateRegistry
 0001:00000840       Classes.TComponent.QueryInterface
 0001:00000848       Classes.TComponent._AddRef
 0001:00000850       Classes.TComponent._Release
 0001:00000858       Classes.Finalization
 0001:00000860       TypInfo.Finalization
 0001:00000868       SysUtils.StringToGUID
 0001:00000870       SysUtils.GUIDToString
 0001:00000878       SysUtils.LowerCase
 0001:00000880       SysUtils.CompareText
 0001:00000888       SysUtils.AnsiLowerCase
 0001:00000890       SysUtils.Trim
 0001:00000898       SysUtils.IntToStr
 0001:000008A0       SysUtils.IntToHex
 0001:000008A8       SysUtils.StrToInt
 0001:000008B0       SysUtils.FileExists
 0001:000008B8       SysUtils.DirectoryExists
 0001:000008C0       SysUtils.ForceDirectories
 0001:000008C8       SysUtils.FindFirst
 0001:000008D0       SysUtils.FindNext
 0001:000008D8       SysUtils.FindClose
 0001:000008E0       SysUtils.ExtractFilePath
 0001:000008E8       SysUtils.ExtractFileName
 0001:000008F0       SysUtils.ExtractFileExt
 0001:000008F8       SysUtils.StrPas
 0001:00000900       SysUtils.Format
 0001:00000908       SysUtils.EncodeTime
 0001:00000910       SysUtils.EncodeDate
 0001:00000918       SysUtils.DateTimeToSystemTime
 0001:00000920       SysUtils.SystemTimeToDateTime
 0001:00000928       SysUtils.DayOfWeek
 0001:00000930       SysUtils.Date
 0001:00000938       SysUtils.Time
 0001:00000940       SysUtils.Now
 0001:00000948       SysUtils.DateTimeToStr
 0001:00000950       SysUtils.FormatDateTime
 0001:00000958       SysUtils.OutOfMemoryError
 0001:00000960       SysUtils.Exception.Create
 0001:00000968       SysUtils.Exception.CreateRes
 0001:00000970       SysUtils.Exception.Destroy
 0001:00000978       SysUtils.Exception.GetBaseException
 0001:00000980       SysUtils.Exception.RaisingException
 0001:00000988       SysUtils.Exception.ToString
 0001:00000990       SysUtils.Exception.Destroy@
 0001:00000998       SysUtils.IncludeTrailingPathDelimiter
 0001:000009A0       SysUtils.LoadPackage
 0001:000009A8       SysUtils.UnloadPackage
 0001:000009B0       SysUtils.RaiseLastOSError
 0001:000009B8       SysUtils.FreeAndNil
 0001:000009C0       SysUtils.TLanguages.Destroy@
 0001:000009C8       SysUtils.TEncoding.Destroy@
 0001:000009D0       SysUtils.Finalization
 0001:000009D8       Math.Max
 0001:000009E0       Variants.Finalization
 0001:000009E8       VarUtils.Finalization
 0001:000009F0       TimeSpan.TTimeSpan.Destroy@
 0001:000009F8       HelpIntfs.Finalization
 0001:00000A00       Contnrs.TObjectList.Add
 0001:00000A08       Contnrs.TObjectList.Create
 0001:00000A10       Contnrs.TObjectList.GetItem
 0001:00000A18       MultiMon.Finalization
 0001:00000A20       ActnList.Finalization
 0001:00000A28       ImgList.TCustomImageList.Add
 0001:00000A30       ImgList.TCustomImageList.AddIcon
 0001:00000A38       Graphics.TFont.SetColor
 0001:00000A40       Graphics.TFont.SetSize
 0001:00000A48       Graphics.TFont.SetStyle
 0001:00000A50       Graphics.TPicture.LoadFromFile
 0001:00000A58       Graphics.Finalization
 0001:00000A60       Registry.TRegistry.Create
 0001:00000A68       Registry.TRegistry.SetRootKey
 0001:00000A70       Registry.TRegistry.OpenKey
 0001:00000A78       Registry.TRegistry.ReadString
 0001:00000A80       Registry.Finalization
 0001:00000A88       IniFiles.TCustomIniFile.Create
 0001:00000A90       IniFiles.Finalization
 0001:00000A98       IOUtils.TPath.Destroy@
 0001:00000AA0       IOUtils.Finalization
 0001:00000AA8       Themes.Finalization
 0001:00000AB0       Controls.FindControl
 0001:00000AB8       Controls.TControl.GetDragImages
 0001:00000AC0       Controls.TControl.GetEnabled
 0001:00000AC8       Controls.TControl.GetAction
 0001:00000AD0       Controls.TControl.SetAnchors
 0001:00000AD8       Controls.TControl.IsAnchorsStored
 0001:00000AE0       Controls.TControl.SetDragMode
 0001:00000AE8       Controls.TControl.RequestAlign
 0001:00000AF0       Controls.TControl.Resize
 0001:00000AF8       Controls.TControl.ReadState
 0001:00000B00       Controls.TControl.Notification
 0001:00000B08       Controls.TControl.SetAlign
 0001:00000B10       Controls.TControl.SetBounds
 0001:00000B18       Controls.TControl.SetLeft
 0001:00000B20       Controls.TControl.SetTop
 0001:00000B28       Controls.TControl.SetWidth
 0001:00000B30       Controls.TControl.SetHeight
 0001:00000B38       Controls.TControl.GetBoundsRect
 0001:00000B40       Controls.TControl.GetClientRect
 0001:00000B48       Controls.TControl.GetClientWidth
 0001:00000B50       Controls.TControl.GetClientHeight
 0001:00000B58       Controls.TControl.GetClientOrigin
 0001:00000B60       Controls.TControl.ScreenToClient
 0001:00000B68       Controls.TControl.SetAutoSize
 0001:00000B70       Controls.TControl.SetName
 0001:00000B78       Controls.TControl.SetParent
 0001:00000B80       Controls.TControl.SetVisible
 0001:00000B88       Controls.TControl.SetEnabled
 0001:00000B90       Controls.TControl.GetText
 0001:00000B98       Controls.TControl.SetText
 0001:00000BA0       Controls.TControl.SetBiDiMode
 0001:00000BA8       Controls.TControl.SetColor
 0001:00000BB0       Controls.TControl.IsColorStored
 0001:00000BB8       Controls.TControl.SetParentBiDiMode
 0001:00000BC0       Controls.TControl.GetDeviceContext
 0001:00000BC8       Controls.TControl.Invalidate
 0001:00000BD0       Controls.TControl.Update
 0001:00000BD8       Controls.TControl.Repaint
 0001:00000BE0       Controls.TControl.DoGesture
 0001:00000BE8       Controls.TControl.DoGetGestureOptions
 0001:00000BF0       Controls.TControl.CanAutoSize
 0001:00000BF8       Controls.TControl.CanResize
 0001:00000C00       Controls.TControl.ConstrainedResize
 0001:00000C08       Controls.TControl.WndProc
 0001:00000C10       Controls.TControl.DefaultHandler
 0001:00000C18       Controls.TControl.DefineProperties
 0001:00000C20       Controls.TControl.DblClick
 0001:00000C28       Controls.TControl.CreateTouchManager
 0001:00000C30       Controls.TControl.IsVisibleStored
 0001:00000C38       Controls.TControl.Loaded
 0001:00000C40       Controls.TControl.AssignTo
 0001:00000C48       Controls.TControl.GetFloating
 0001:00000C50       Controls.TControl.GetFloatingDockSiteClass
 0001:00000C58       Controls.TControl.InitiateAction
 0001:00000C60       Controls.TControl.SetConstraints
 0001:00000C68       Controls.TControl.GetAlignWithMargins
 0001:00000C70       Controls.TWinControl.Create
 0001:00000C78       Controls.TWinControl.Destroy
 0001:00000C80       Controls.TWinControl.ReadState
 0001:00000C88       Controls.TWinControl.AdjustClientRect
 0001:00000C90       Controls.TWinControl.AlignControls
 0001:00000C98       Controls.TWinControl.GetControl
 0001:00000CA0       Controls.TWinControl.GetControlCount
 0001:00000CA8       Controls.TWinControl.Notification
 0001:00000CB0       Controls.TWinControl.CreateParams
 0001:00000CB8       Controls.TWinControl.CreateWnd
 0001:00000CC0       Controls.TWinControl.CreateWindowHandle
 0001:00000CC8       Controls.TWinControl.DefineProperties
 0001:00000CD0       Controls.TWinControl.DestroyWnd
 0001:00000CD8       Controls.TWinControl.DestroyWindowHandle
 0001:00000CE0       Controls.TWinControl.CreateHandle
 0001:00000CE8       Controls.TWinControl.CustomAlignInsertBefore
 0001:00000CF0       Controls.TWinControl.CustomAlignPosition
 0001:00000CF8       Controls.TWinControl.DestroyHandle
 0001:00000D00       Controls.TWinControl.SetParentDoubleBuffered
 0001:00000D08       Controls.TWinControl.WndProc
 0001:00000D10       Controls.TWinControl.DefaultHandler
 0001:00000D18       Controls.TWinControl.PaintWindow
 0001:00000D20       Controls.TWinControl.RequestAlign
 0001:00000D28       Controls.TWinControl.SetDoubleBuffered
 0001:00000D30       Controls.TWinControl.SetBounds
 0001:00000D38       Controls.TWinControl.ShowControl
 0001:00000D40       Controls.TWinControl.GetDeviceContext
 0001:00000D48       Controls.TWinControl.Invalidate
 0001:00000D50       Controls.TWinControl.Update
 0001:00000D58       Controls.TWinControl.Repaint
 0001:00000D60       Controls.TWinControl.SetFocus
 0001:00000D68       Controls.TWinControl.HandleNeeded
 0001:00000D70       Controls.TWinControl.GetHandle
 0001:00000D78       Controls.TWinControl.GetControlExtents
 0001:00000D80       Controls.TWinControl.GetClientOrigin
 0001:00000D88       Controls.TWinControl.GetClientRect
 0001:00000D90       Controls.TWinControl.GetTabOrder
 0001:00000D98       Controls.TWinControl.SetTabOrder
 0001:00000DA0       Controls.TWinControl.SetTabStop
 0001:00000DA8       Controls.TWinControl.SelectNext
 0001:00000DB0       Controls.TWinControl.CanResize
 0001:00000DB8       Controls.TWinControl.ConstrainedResize
 0001:00000DC0       Controls.TWinControl.AssignTo
 0001:00000DC8       Controls.TWinControl.CanAutoSize
 0001:00000DD0       Controls.TWinControl.SetParentBackground
 0001:00000DD8       Controls.TWinControl.DockReplaceDockClient
 0001:00000DE0       Controls.TWinControl.UpdateControlOriginalParentSize
 0001:00000DE8       Controls.TWinControl.SetParent
 0001:00000DF0       Controls.TGraphicControl.Destroy
 0001:00000DF8       Controls.Finalization
 0001:00000E00       Menus.ShortCut
 0001:00000E08       Menus.TextToShortCut
 0001:00000E10       Menus.TMenuItem.Create
 0001:00000E18       Menus.TMenuItem.Destroy
 0001:00000E20       Menus.TMenuItem.Loaded
 0001:00000E28       Menus.TMenuItem.DefineProperties
 0001:00000E30       Menus.TMenuItem.DrawItem
 0001:00000E38       Menus.TMenuItem.AdvancedDrawItem
 0001:00000E40       Menus.TMenuItem.MeasureItem
 0001:00000E48       Menus.TMenuItem.SetCaption
 0001:00000E50       Menus.TMenuItem.GetCount
 0001:00000E58       Menus.TMenuItem.GetItem
 0001:00000E60       Menus.TMenuItem.SetVisible
 0001:00000E68       Menus.TMenuItem.InitiateAction
 0001:00000E70       Menus.TMenuItem.Click
 0001:00000E78       Menus.TMenuItem.Add
 0001:00000E80       Menus.TMenuItem.MenuChanged
 0001:00000E88       Menus.TMenuItem.AssignTo
 0001:00000E90       Menus.TMenuItem.Notification
 0001:00000E98       Menus.TMenuItem.Find
 0001:00000EA0       Menus.TMenu.SetAutoHotkeys
 0001:00000EA8       Menus.Finalization
 0001:00000EB0       Dialogs.TOpenDialog.GetFileName
 0001:00000EB8       Dialogs.ShowMessage
 0001:00000EC0       Dialogs.InputQuery
 0001:00000EC8       Dialogs.Finalization
 0001:00000ED0       ComCtrls.TTabSheet.Create
 0001:00000ED8       ComCtrls.TTabSheet.Destroy
 0001:00000EE0       ComCtrls.TTabSheet.GetTabIndex
 0001:00000EE8       ComCtrls.TTabSheet.CreateParams
 0001:00000EF0       ComCtrls.TTabSheet.ReadState
 0001:00000EF8       ComCtrls.TTabSheet.SetPageControl
 0001:00000F00       ComCtrls.TTabSheet.UpdateControlOriginalParentSize
 0001:00000F08       ComCtrls.TPageControl.GetPage
 0001:00000F10       ComCtrls.TPageControl.GetPageCount
 0001:00000F18       ComCtrls.TPageControl.SetActivePage
 0001:00000F20       ComCtrls.TPageControl.SetActivePageIndex
 0001:00000F28       ComCtrls.TStatusPanel.SetText
 0001:00000F30       ComCtrls.TStatusPanels.GetItem
 0001:00000F38       ComCtrls.TProgressBar.SetMax
 0001:00000F40       ComCtrls.TProgressBar.SetPosition
 0001:00000F48       ComCtrls.TAnimate.SetActive
 0001:00000F50       ComCtrls.TToolButton.Create
 0001:00000F58       ComCtrls.TToolButton.Notification
 0001:00000F60       ComCtrls.TToolButton.SetBounds
 0001:00000F68       ComCtrls.TToolButton.Paint
 0001:00000F70       ComCtrls.TToolButton.SetAutoSize
 0001:00000F78       ComCtrls.TToolButton.SetImageIndex
 0001:00000F80       ComCtrls.TToolButton.SetStyle
 0001:00000F88       ComCtrls.TToolButton.BeginUpdate
 0001:00000F90       ComCtrls.TToolButton.EndUpdate
 0001:00000F98       ComCtrls.TToolButton.RefreshControl
 0001:00000FA0       ComCtrls.TToolButton.UpdateControl
 0001:00000FA8       ComCtrls.TToolButton.AssignTo
 0001:00000FB0       ComCtrls.TToolBar.GetButton
 0001:00000FB8       ComCtrls.TToolBar.GetButtonCount
 0001:00000FC0       ComCtrls.Finalization
 0001:00000FC8       GraphUtil.Finalization
 0001:00000FD0       ShellAPI.ShellExecute
 0001:00000FD8       ExtCtrls.TTimer.SetEnabled
 0001:00000FE0       ExtCtrls.TTimer.SetInterval
 0001:00000FE8       ExtCtrls.TSplitter.Create
 0001:00000FF0       ExtCtrls.TSplitter.Destroy
 0001:00000FF8       ExtCtrls.TSplitter.RequestAlign
 0001:00001000       ExtCtrls.TSplitter.Paint
 0001:00001008       ExtCtrls.TSplitter.DoCanResize
 0001:00001010       ExtCtrls.TSplitter.CanResize
 0001:00001018       ExtCtrls.TSplitter.MouseDown
 0001:00001020       ExtCtrls.TSplitter.MouseMove
 0001:00001028       ExtCtrls.TSplitter.MouseUp
 0001:00001030       ExtCtrls.Finalization
 0001:00001038       Printers.Finalization
 0001:00001040       Clipbrd.Finalization
 0001:00001048       FlatSB.Finalization
 0001:00001050       Generics.Defaults._LookupVtableInfo
 0001:00001058       Generics.Collections.InCircularRange
 0001:00001060       DBClient.Finalization
 0001:00001068       SqlTimSt.Finalization
 0001:00001070       DB.Finalization
 0001:00001078       WideStrings.Finalization
 0001:00001080       FMTBcd.Finalization
 0001:00001088       ComObj.Finalization
 0001:00001090       DSIntf.Finalization
 0001:00001098       Provider.Finalization
 0001:000010A0       AppEvnts.Finalization
 0001:000010A8       pngimage.Finalization
 0001:000010B0       Rtti.Finalization
 0001:00002610       ceflib..TCefBaseOwn
 0001:000027CC       ceflib..TCefBaseRef
 0001:00002B90       ceflib..TCefBrowserRef
 0001:00002E10       ceflib..TCefFrameRef
 0001:00002F84       ceflib..TCefPostDataRef
 0001:0000314C       ceflib..TCefPostDataElementRef
 0001:00003368       ceflib..TCefRequestRef
 0001:00003508       ceflib..TCefStreamReaderRef
 0001:00003A4C       ceflib..TCefv8ValueRef
 0001:00003F54       ceflib..TCefV8StackTraceRef
 0001:00004148       ceflib..TCefV8StackFrameRef
 0001:000042EC       ceflib..TCefv8ContextRef
 0001:000044AC       ceflib..TCefv8HandlerRef
 0001:00004594       ceflib..TCefClientOwn
 0001:000046A0       ceflib..TCefLifeSpanHandlerOwn
 0001:00004794       ceflib..TCefLoadHandlerOwn
 0001:00004878       ceflib..TCefRequestHandlerOwn
 0001:00004970       ceflib..TCefDisplayHandlerOwn
 0001:00004A6C       ceflib..TCefFocusHandlerOwn
 0001:00004B50       ceflib..TCefKeyboardHandlerOwn
 0001:00004C34       ceflib..TCefMenuHandlerOwn
 0001:00004D18       ceflib..TCefPermissionHandlerOwn
 0001:00004E00       ceflib..TCefPrintHandlerOwn
 0001:00004EE0       ceflib..TCefFindHandlerOwn
 0001:00004FBC       ceflib..TCefJsDialogHandlerOwn
 0001:000050A8       ceflib..TCefV8ContextHandlerOwn
 0001:00005194       ceflib..TCefRenderHandlerOwn
 0001:0000528C       ceflib..TCefDragHandlerOwn
 0001:0000536C       ceflib..TCefGeolocationHandlerOwn
 0001:00005458       ceflib..TCefZoomHandlerOwn
 0001:000055D4       ceflib..TCefCustomStreamReader
 0001:0000581C       ceflib..TCefSchemeHandlerOwn
 0001:00005B10       ceflib..TCefSchemeHandlerCallbackRef
 0001:00005C78       ceflib..TCefSchemeHandlerFactoryOwn
 0001:00005E28       ceflib..TCefv8HandlerOwn
 0001:00005F68       ceflib..TCefDomVisitorOwn
 0001:00006040       ceflib..TCefFastDomVisitor
 0001:00006270       ceflib..TCefDomDocumentRef
 0001:000064EC       ceflib..TCefDomNodeRef
 0001:00006688       ceflib..TCefDomEventRef
 0001:000067D4       ceflib..TCefDomEventListenerOwn
 0001:0000697C       ceflib..TCefResponseRef
 0001:00006A60       ceflib..TCefFastDomEventListener
 0001:00006C00       ceflib..TCefV8AccessorOwn
 0001:00006CDC       ceflib..TCefFastV8Accessor
 0001:00006F00       ceflib..TCefDragDataRef
 0001:0000709C       ceflib..TCefV8ExceptionRef
 0001:000071F0       ceflib..TCefProxyHandlerOwn
 0001:00007348       ceflib..TCefResourceBundleHandlerOwn
 0001:00007478       ceflib..TCefFastProxyHandler
 0001:00007614       ceflib..TCefFastResourceBundle
 0001:00007810       ceflib..TCefAppOwn
 0001:0000794C       ceflib..TCefSchemeRegistrarRef
 0001:00007AA4       ceflib..TCefGeolocationCallbackRef
 0001:00007BA0       ceflib..ECefException
 0001:00007C60       ceflib..TInternalApp
 0001:00007D94       ceflib.TInternalApp.Create
 0001:00007E1C       ceflib.TInternalApp.GetProxyHandler
 0001:00007E34       ceflib.TInternalApp.GetResourceBundleHandler
 0001:00007E4C       ceflib.TInternalApp.OnRegisterCustomSchemes
 0001:00007E64       ceflib.TzSpecificLocalTimeToSystemTime
 0001:00007E6C       ceflib.SystemTimeToTzSpecificLocalTime
 0001:00007E74       ceflib..TSHSyncProcessRequest
 0001:00008024       ceflib.TSHSyncProcessRequest.Execute
 0001:00008040       ceflib.TSHSyncProcessRequest.Create
 0001:00008090       ceflib..TSHSyncReadResponse
 0001:00008284       ceflib.TSHSyncReadResponse.Execute
 0001:000082A8       ceflib.TSHSyncReadResponse.Create
 0001:00008300       ceflib..TSHSyncGetResponseHeaders
 0001:000084AC       ceflib.TSHSyncGetResponseHeaders.Execute
 0001:000084C8       ceflib.TSHSyncGetResponseHeaders.Create
 0001:00008520       ceflib.cef_string_utf16_copy
 0001:0000853C       ceflib.CefTimeToSystemTime
 0001:0000857C       ceflib.SystemTimeToCefTime
 0001:000085B4       ceflib.CefTimeToDateTime
 0001:000085EC       ceflib.DateTimeToCefTime
 0001:00008624       ceflib.cef_base_add_ref
 0001:0000863C       ceflib.cef_base_release
 0001:00008654       ceflib.cef_base_get_refct
 0001:00008668       ceflib.cef_client_get_life_span_handler
 0001:000086C8       ceflib.cef_client_get_load_handler
 0001:00008728       ceflib.cef_client_get_request_handler
 0001:00008788       ceflib.cef_client_get_display_handler
 0001:000087E8       ceflib.cef_client_get_focus_handler
 0001:00008848       ceflib.cef_client_get_keyboard_handler
 0001:000088A8       ceflib.cef_client_get_menu_handler
 0001:00008908       ceflib.cef_client_get_print_handler
 0001:00008968       ceflib.cef_client_get_find_handler
 0001:000089C8       ceflib.cef_client_get_jsdialog_handler
 0001:00008A28       ceflib.cef_client_get_v8context_handler
 0001:00008A88       ceflib.cef_client_get_render_handler
 0001:00008AE8       ceflib.cef_client_get_drag_handler
 0001:00008B48       ceflib.cef_client_get_geolocation_handler
 0001:00008BA8       ceflib.cef_client_get_zoom_handler
 0001:00008C08       ceflib.cef_geolocation_handler_on_request_geolocation_permission
 0001:00008CA0       ceflib.cef_geolocation_handler_on_cancel_geolocation_permission
 0001:00008D1C       ceflib.cef_life_span_handler_on_before_popup
 0001:00008DF0       ceflib.cef_life_span_handler_on_after_created
 0001:00008E4C       ceflib.cef_life_span_handler_on_before_close
 0001:00008EA8       ceflib.cef_life_span_handler_run_modal
 0001:00008F0C       ceflib.cef_life_span_handler_do_close
 0001:00008F70       ceflib.cef_load_handler_on_load_start
 0001:00008FEC       ceflib.cef_load_handler_on_load_end
 0001:0000906C       ceflib.cef_load_handler_on_load_error
 0001:00009130       ceflib.cef_request_handler_on_before_browse
 0001:000091DC       ceflib.cef_request_handler_on_before_resource_load
 0001:00009328       ceflib.cef_request_handler_on_resource_redirect
 0001:000093C4       ceflib.cef_request_handler_on_resource_response
 0001:0000948C       ceflib.cef_request_handler_on_protocol_execution
 0001:00009530       ceflib.cef_request_handler_get_download_handler
 0001:00009634       ceflib.cef_request_handler_get_auth_credentials
 0001:0000971C       ceflib.cef_display_handler_on_nav_state_change
 0001:00009788       ceflib.cef_display_handler_on_address_change
 0001:0000981C       ceflib.cef_display_handler_on_contents_size_change
 0001:000098A0       ceflib.cef_display_handler_on_title_change
 0001:00009918       ceflib.cef_display_handler_on_favicon_urlchange
 0001:00009A14       ceflib.cef_display_handler_on_tooltip
 0001:00009AB8       ceflib.cef_display_handler_on_status_message
 0001:00009B34       ceflib.cef_display_handler_on_console_message
 0001:00009BD0       ceflib.cef_focus_handler_on_take_focus
 0001:00009C34       ceflib.cef_focus_handler_on_set_focus
 0001:00009C9C       ceflib.cef_focus_handler_on_focused_node_changed
 0001:00009D38       ceflib.cef_keyboard_handler_on_key_event
 0001:00009DB8       ceflib.cef_menu_handler_on_before_menu
 0001:00009E20       ceflib.cef_menu_handler_get_menu_label
 0001:00009EA8       ceflib.cef_menu_handler_on_menu_action
 0001:00009F10       ceflib.cef_permission_handler_on_before_script_extension_load
 0001:00009FAC       ceflib.cef_print_handler_get_print_options
 0001:0000A014       ceflib.cef_print_handler_get_print_header_footer
 0001:0000A1B0       ceflib.cef_find_handler_on_find_result
 0001:0000A22C       ceflib.cef_jsdialog_handler_on_jsalert
 0001:0000A2C8       ceflib.cef_jsdialog_handler_on_jsconfirm
 0001:0000A380       ceflib.cef_jsdialog_handler_on_jsprompt
 0001:0000A47C       ceflib.cef_v8_context_handler_on_context_created
 0001:0000A518       ceflib.cef_v8_context_handler_on_context_released
 0001:0000A5B4       ceflib.cef_v8_context_handler_on_uncaught_exception
 0001:0000A688       ceflib.cef_render_handler_get_view_rect
 0001:0000A6F0       ceflib.cef_render_handler_get_screen_rect
 0001:0000A758       ceflib.cef_render_handler_get_screen_point
 0001:0000A7CC       ceflib.cef_render_handler_on_popup_show
 0001:0000A830       ceflib.cef_render_handler_on_popup_size
 0001:0000A890       ceflib.cef_render_handler_on_paint
 0001:0000A8FC       ceflib.cef_render_handler_on_cursor_change
 0001:0000A95C       ceflib.cef_drag_handler_on_drag_start
 0001:0000A9E4       ceflib.cef_drag_handler_on_drag_enter
 0001:0000AA6C       ceflib.cef_read_handler_read
 0001:0000AA8C       ceflib.cef_read_handler_seek
 0001:0000AAAC       ceflib.cef_read_handler_tell
 0001:0000AAD4       ceflib.cef_read_handler_eof
 0001:0000AAF4       ceflib.cef_scheme_handler_factory_create
 0001:0000ABA8       ceflib.cef_scheme_handler_process_request
 0001:0000AC2C       ceflib.cef_scheme_handler_process_request_sync
 0001:0000AD00       ceflib.cef_scheme_handler_cancel
 0001:0000AD14       ceflib.cef_scheme_handler_read_response
 0001:0000AD84       ceflib.cef_scheme_handler_read_response_sync
 0001:0000AE50       ceflib.cef_scheme_handler_get_response_headers_sync
 0001:0000AF20       ceflib.cef_scheme_handler_get_response_headers
 0001:0000AFA8       ceflib.cef_v8_handler_execute
 0001:0000B134       ceflib.cef_dom_visitor_visite
 0001:0000B190       ceflib.cef_dom_event_listener_handle_event
 0001:0000B1EC       ceflib.cef_v8_accessor_get
 0001:0000B2F0       ceflib.cef_v8_accessor_put
 0001:0000B3A0       ceflib.cef_proxy_handler_get_proxy_for_url
 0001:0000B414       ceflib.cef_resource_bundle_handler_get_localized_string
 0001:0000B498       ceflib.cef_resource_bundle_handler_get_data_resource
 0001:0000B4C0       ceflib.cef_app_on_register_custom_schemes
 0001:0000B51C       ceflib.cef_app_get_proxy_handler
 0001:0000B57C       ceflib.cef_app_get_resource_bundle_handler
 0001:0000B5DC       ceflib.cef_zoom_handler_on_get_zoom_level
 0001:0000B660       ceflib.cef_zoom_handler_on_set_zoom_level
 0001:0000B6E4       ceflib.TCefBaseOwn.CreateData
 0001:0000B768       ceflib.TCefBaseOwn.Destroy
 0001:0000B7A8       ceflib.TCefBaseOwn.Wrap
 0001:0000B7C0       ceflib.TCefBaseOwn.Lock
 0001:0000B7D0       ceflib.TCefBaseOwn.Unlock
 0001:0000B7E0       ceflib.TCefBaseRef.Create
 0001:0000B8E8       ceflib.TCefBaseRef.Destroy
 0001:0000B920       ceflib.TCefBaseRef.UnWrap
 0001:0000B96C       ceflib.TCefBaseRef.Wrap
 0001:0000B984       ceflib.TCefBrowserRef.CanGoBack
 0001:0000B99C       ceflib.TCefBrowserRef.CanGoForward
 0001:0000B9B4       ceflib.TCefBrowserRef.ClearHistory
 0001:0000B9C0       ceflib.TCefBrowserRef.CloseBrowser
 0001:0000B9CC       ceflib.TCefBrowserRef.CloseDevTools
 0001:0000B9D8       ceflib.TCefBrowserRef.Find
 0001:0000BA18       ceflib.TCefBrowserRef.GetFocusedFrame
 0001:0000BA3C       ceflib.TCefBrowserRef.GetFrame
 0001:0000BA78       ceflib.TCefBrowserRef.GetFrameNames
 0001:0000BB50       ceflib.TCefBrowserRef.GetClient
 0001:0000BB74       ceflib.TCefBrowserRef.GetIdentifier
 0001:0000BB80       ceflib.TCefBrowserRef.GetImage
 0001:0000BBB4       ceflib.TCefBrowserRef.GetMainFrame
 0001:0000BBD8       ceflib.TCefBrowserRef.GetOpenerWindowHandle
 0001:0000BBE4       ceflib.TCefBrowserRef.GetSize
 0001:0000BC18       ceflib.TCefBrowserRef.GetWindowHandle
 0001:0000BC24       ceflib.TCefBrowserRef.GetZoomLevel
 0001:0000BC3C       ceflib.TCefBrowserRef.GoBack
 0001:0000BC48       ceflib.TCefBrowserRef.GoForward
 0001:0000BC54       ceflib.TCefBrowserRef.HasDocument
 0001:0000BC6C       ceflib.TCefBrowserRef.HidePopup
 0001:0000BC7C       ceflib.TCefBrowserRef.Invalidate
 0001:0000BC8C       ceflib.TCefBrowserRef.IsPopup
 0001:0000BCA4       ceflib.TCefBrowserRef.IsPopupVisible
 0001:0000BCC0       ceflib.TCefBrowserRef.IsWindowRenderingDisabled
 0001:0000BCD8       ceflib.TCefBrowserRef.ParentWindowWillClose
 0001:0000BCE4       ceflib.TCefBrowserRef.Reload
 0001:0000BCF0       ceflib.TCefBrowserRef.ReloadIgnoreCache
 0001:0000BCFC       ceflib.TCefBrowserRef.SendCaptureLostEvent
 0001:0000BD0C       ceflib.TCefBrowserRef.SendFocusEvent
 0001:0000BD20       ceflib.TCefBrowserRef.SendKeyEvent
 0001:0000BD3C       ceflib.TCefBrowserRef.SendMouseClickEvent
 0001:0000BD60       ceflib.TCefBrowserRef.SendMouseMoveEvent
 0001:0000BD7C       ceflib.TCefBrowserRef.SendMouseWheelEvent
 0001:0000BD9C       ceflib.TCefBrowserRef.SetFocus
 0001:0000BDAC       ceflib.TCefBrowserRef.SetSize
 0001:0000BDC8       ceflib.TCefBrowserRef.SetZoomLevel
 0001:0000BDDC       ceflib.TCefBrowserRef.ShowDevTools
 0001:0000BDE8       ceflib.TCefBrowserRef.StopFinding
 0001:0000BDF8       ceflib.TCefBrowserRef.StopLoad
 0001:0000BE04       ceflib.TCefBrowserRef.UnWrap
 0001:0000BE50       ceflib.TCefFrameRef.Copy
 0001:0000BE5C       ceflib.TCefFrameRef.Cut
 0001:0000BE68       ceflib.TCefFrameRef.Del
 0001:0000BE74       ceflib.TCefFrameRef.ExecuteJavaScript
 0001:0000BEB4       ceflib.TCefFrameRef.GetBrowser
 0001:0000BED8       ceflib.TCefFrameRef.GetIdentifier
 0001:0000BEF8       ceflib.TCefFrameRef.GetName
 0001:0000BF18       ceflib.TCefFrameRef.GetParent
 0001:0000BF3C       ceflib.TCefFrameRef.GetSource
 0001:0000BF5C       ceflib.TCefFrameRef.getText
 0001:0000BF7C       ceflib.TCefFrameRef.GetUrl
 0001:0000BF9C       ceflib.TCefFrameRef.GetV8Context
 0001:0000BFC0       ceflib.TCefFrameRef.IsFocused
 0001:0000BFD8       ceflib.TCefFrameRef.IsMain
 0001:0000BFF0       ceflib.TCefFrameRef.LoadFile
 0001:0000C0D4       ceflib.TCefFrameRef.LoadRequest
 0001:0000C168       ceflib.TCefFrameRef.LoadStream
 0001:0000C268       ceflib.TCefFrameRef.LoadString
 0001:0000C2A4       ceflib.TCefFrameRef.LoadUrl
 0001:0000C2CC       ceflib.TCefFrameRef.Paste
 0001:0000C2D8       ceflib.TCefFrameRef.Print
 0001:0000C2E4       ceflib.TCefFrameRef.Redo
 0001:0000C2F0       ceflib.TCefFrameRef.SelectAll
 0001:0000C2FC       ceflib.TCefFrameRef.Undo
 0001:0000C308       ceflib.TCefFrameRef.ViewSource
 0001:0000C314       ceflib.TCefFrameRef.VisitDom
 0001:0000C3A8       ceflib.TCefFrameRef.VisitDomProc
 0001:0000C424       ceflib.TCefFrameRef.UnWrap
 0001:0000C470       ceflib.TCefCustomStreamReader.Create
 0001:0000C4E0       ceflib.TCefCustomStreamReader.Create
 0001:0000C534       ceflib.TCefCustomStreamReader.Destroy
 0001:0000C56C       ceflib.TCefCustomStreamReader.Eof
 0001:0000C5DC       ceflib.TCefCustomStreamReader.Read
 0001:0000C644       ceflib.TCefCustomStreamReader.Seek
 0001:0000C6A0       ceflib.TCefCustomStreamReader.Tell
 0001:0000C6F8       ceflib.TCefPostDataRef.AddElement
 0001:0000C790       ceflib.TCefPostDataRef.GetCount
 0001:0000C79C       ceflib.TCefPostDataRef.GetElements
 0001:0000C888       ceflib.TCefPostDataRef.New
 0001:0000C8A8       ceflib.TCefPostDataRef.RemoveElement
 0001:0000C940       ceflib.TCefPostDataRef.RemoveElements
 0001:0000C94C       ceflib.TCefPostDataRef.UnWrap
 0001:0000C998       ceflib.TCefPostDataElementRef.GetBytes
 0001:0000C9A8       ceflib.TCefPostDataElementRef.GetBytesCount
 0001:0000C9B4       ceflib.TCefPostDataElementRef.GetFile
 0001:0000C9D4       ceflib.TCefPostDataElementRef.GetType
 0001:0000C9E0       ceflib.TCefPostDataElementRef.New
 0001:0000CA00       ceflib.TCefPostDataElementRef.SetToBytes
 0001:0000CA10       ceflib.TCefPostDataElementRef.SetToEmpty
 0001:0000CA1C       ceflib.TCefPostDataElementRef.SetToFile
 0001:0000CA44       ceflib.TCefPostDataElementRef.UnWrap
 0001:0000CA90       ceflib.TCefRequestRef.Assign
 0001:0000CB5C       ceflib.TCefRequestRef.GetFirstPartyForCookies
 0001:0000CB7C       ceflib.TCefRequestRef.GetFlags
 0001:0000CB88       ceflib.TCefRequestRef.GetHeaderMap
 0001:0000CBA8       ceflib.TCefRequestRef.GetMethod
 0001:0000CBC8       ceflib.TCefRequestRef.GetPostData
 0001:0000CBEC       ceflib.TCefRequestRef.GetUrl
 0001:0000CC0C       ceflib.TCefRequestRef.New
 0001:0000CC2C       ceflib.TCefRequestRef.SetFirstPartyForCookies
 0001:0000CC54       ceflib.TCefRequestRef.SetFlags
 0001:0000CC64       ceflib.TCefRequestRef.SetHeaderMap
 0001:0000CC84       ceflib.TCefRequestRef.SetMethod
 0001:0000CCAC       ceflib.TCefRequestRef.SetPostData
 0001:0000CD44       ceflib.TCefRequestRef.SetUrl
 0001:0000CD6C       ceflib.TCefRequestRef.UnWrap
 0001:0000CDB8       ceflib.TCefStreamReaderRef.CreateForCustomStream
 0001:0000CE5C       ceflib.TCefStreamReaderRef.CreateForData
 0001:0000CE88       ceflib.TCefStreamReaderRef.CreateForFile
 0001:0000CEC0       ceflib.TCefStreamReaderRef.CreateForStream
 0001:0000CF44       ceflib.TCefStreamReaderRef.Eof
 0001:0000CF5C       ceflib.TCefStreamReaderRef.Read
 0001:0000CF74       ceflib.TCefStreamReaderRef.Seek
 0001:0000CF8C       ceflib.TCefStreamReaderRef.Tell
 0001:0000CFAC       ceflib.TCefStreamReaderRef.UnWrap
 0001:0000CFF8       ceflib.CefLoadLibDefault
 0001:0000D07C       ceflib.CefLoadLib
 0001:0000F418       ceflib.CefBrowserCreateSync
 0001:0000F464       ceflib.CefDoMessageLoopWork
 0001:0000F478       ceflib.CefShutDown
 0001:0000F4A0       ceflib.CefString
 0001:0000F500       ceflib.CefString
 0001:0000F528       ceflib.CefStringAlloc
 0001:0000F5A0       ceflib.CefStringSet
 0001:0000F608       ceflib.CefStringClearAndGet
 0001:0000F628       ceflib.CefStringFreeAndGet
 0001:0000F658       ceflib.CefRegisterSchemeHandlerFactory
 0001:0000F71C       ceflib.CefRegisterExtension
 0001:0000F7E8       ceflib.TCefSchemeHandlerFactoryOwn.Create
 0001:0000F844       ceflib.TCefSchemeHandlerFactoryOwn.New
 0001:0000F890       ceflib.TCefSchemeHandlerOwn.Cancel
 0001:0000F898       ceflib.TCefSchemeHandlerOwn.Create
 0001:0000F948       ceflib.TCefSchemeHandlerOwn.GetResponseHeaders
 0001:0000F950       ceflib.TCefSchemeHandlerOwn.ProcessRequest
 0001:0000F954       ceflib.TCefSchemeHandlerOwn.ReadResponse
 0001:0000F960       ceflib.TCefv8ValueRef.AdjustExternallyAllocatedMemory
 0001:0000F970       ceflib.TCefv8ValueRef.ClearException
 0001:0000F988       ceflib.TCefv8ValueRef.CreateArray
 0001:0000F9AC       ceflib.TCefv8ValueRef.CreateBool
 0001:0000F9D4       ceflib.TCefv8ValueRef.CreateDate
 0001:0000FA0C       ceflib.TCefv8ValueRef.CreateDouble
 0001:0000FA38       ceflib.TCefv8ValueRef.CreateFunction
 0001:0000FAF4       ceflib.TCefv8ValueRef.CreateInt
 0001:0000FB18       ceflib.TCefv8ValueRef.CreateNull
 0001:0000FB38       ceflib.TCefv8ValueRef.CreateObject
 0001:0000FBDC       ceflib.TCefv8ValueRef.CreateObjectProc
 0001:0000FC60       ceflib.TCefv8ValueRef.CreateString
 0001:0000FC98       ceflib.TCefv8ValueRef.CreateUInt
 0001:0000FCBC       ceflib.TCefv8ValueRef.CreateUndefined
 0001:0000FCDC       ceflib.TCefv8ValueRef.DeleteValueByIndex
 0001:0000FCFC       ceflib.TCefv8ValueRef.DeleteValueByKey
 0001:0000FD28       ceflib.TCefv8ValueRef.ExecuteFunction
 0001:0000FE7C       ceflib.TCefv8ValueRef.ExecuteFunctionWithContext
 0001:00010014       ceflib.TCefv8ValueRef.GetArrayLength
 0001:00010024       ceflib.TCefv8ValueRef.GetBoolValue
 0001:0001003C       ceflib.TCefv8ValueRef.GetDateValue
 0001:00010068       ceflib.TCefv8ValueRef.GetDoubleValue
 0001:00010080       ceflib.TCefv8ValueRef.GetException
 0001:000100A4       ceflib.TCefv8ValueRef.GetExternallyAllocatedMemory
 0001:000100B4       ceflib.TCefv8ValueRef.GetFunctionHandler
 0001:000100DC       ceflib.TCefv8ValueRef.GetFunctionName
 0001:000100FC       ceflib.TCefv8ValueRef.GetIntValue
 0001:00010108       ceflib.TCefv8ValueRef.GetKeys
 0001:000101E8       ceflib.TCefv8ValueRef.GetStringValue
 0001:00010208       ceflib.TCefv8ValueRef.GetUIntValue
 0001:00010214       ceflib.TCefv8ValueRef.GetUserData
 0001:0001023C       ceflib.TCefv8ValueRef.GetValueByIndex
 0001:00010270       ceflib.TCefv8ValueRef.GetValueByKey
 0001:000102AC       ceflib.TCefv8ValueRef.HasException
 0001:000102C4       ceflib.TCefv8ValueRef.HasValueByIndex
 0001:000102E0       ceflib.TCefv8ValueRef.HasValueByKey
 0001:0001030C       ceflib.TCefv8ValueRef.IsArray
 0001:00010324       ceflib.TCefv8ValueRef.IsBool
 0001:0001033C       ceflib.TCefv8ValueRef.IsDate
 0001:00010354       ceflib.TCefv8ValueRef.IsDouble
 0001:0001036C       ceflib.TCefv8ValueRef.IsFunction
 0001:00010384       ceflib.TCefv8ValueRef.IsInt
 0001:0001039C       ceflib.TCefv8ValueRef.IsNull
 0001:000103B4       ceflib.TCefv8ValueRef.IsObject
 0001:000103CC       ceflib.TCefv8ValueRef.IsSame
 0001:0001046C       ceflib.TCefv8ValueRef.IsString
 0001:00010484       ceflib.TCefv8ValueRef.IsUInt
 0001:0001049C       ceflib.TCefv8ValueRef.IsUndefined
 0001:000104B4       ceflib.TCefv8ValueRef.IsUserCreated
 0001:000104CC       ceflib.TCefv8ValueRef.IsValid
 0001:000104E4       ceflib.TCefv8ValueRef.SetRethrowExceptions
 0001:00010504       ceflib.TCefv8ValueRef.SetUserData
 0001:000105A8       ceflib.TCefv8ValueRef.SetValueByAccessor
 0001:000105E4       ceflib.TCefv8ValueRef.SetValueByIndex
 0001:00010690       ceflib.TCefv8ValueRef.SetValueByKey
 0001:00010750       ceflib.TCefv8ValueRef.UnWrap
 0001:0001079C       ceflib.TCefv8ValueRef.WillRethrowExceptions
 0001:000107EC       ceflib.TCefv8HandlerRef.Execute
 0001:000109A0       ceflib.TCefv8HandlerRef.UnWrap
 0001:000109EC       ceflib.TCefv8HandlerOwn.Create
 0001:00010A38       ceflib.TCefv8HandlerOwn.Execute
 0001:00010A44       ceflib.TCefv8ContextRef.Current
 0001:00010A64       ceflib.TCefv8ContextRef.Enter
 0001:00010A7C       ceflib.TCefv8ContextRef.Entered
 0001:00010A9C       ceflib.TCefv8ContextRef.Eval
 0001:00010B6C       ceflib.TCefv8ContextRef.Exit
 0001:00010B84       ceflib.TCefv8ContextRef.GetBrowser
 0001:00010BA8       ceflib.TCefv8ContextRef.GetFrame
 0001:00010BCC       ceflib.TCefv8ContextRef.GetGlobal
 0001:00010BF0       ceflib.TCefv8ContextRef.IsSame
 0001:00010C94       ceflib.TCefv8ContextRef.IsValid
 0001:00010CAC       ceflib.TCefv8ContextRef.UnWrap
 0001:00010CF8       ceflib.TCefDomVisitorOwn.Create
 0001:00010D44       ceflib.TCefDomVisitorOwn.visit
 0001:00010D48       ceflib.TCefFastDomVisitor.Create
 0001:00010D90       ceflib.TCefFastDomVisitor.visit
 0001:00010DA0       ceflib.TCefDomDocumentRef.GetBaseUrl
 0001:00010DC0       ceflib.TCefDomDocumentRef.GetBody
 0001:00010DE4       ceflib.TCefDomDocumentRef.GetCompleteUrl
 0001:00010E18       ceflib.TCefDomDocumentRef.GetDocument
 0001:00010E3C       ceflib.TCefDomDocumentRef.GetElementById
 0001:00010E78       ceflib.TCefDomDocumentRef.GetFocusedNode
 0001:00010E9C       ceflib.TCefDomDocumentRef.GetHead
 0001:00010EC0       ceflib.TCefDomDocumentRef.GetSelectionAsMarkup
 0001:00010EE0       ceflib.TCefDomDocumentRef.GetSelectionAsText
 0001:00010F00       ceflib.TCefDomDocumentRef.GetSelectionEndNode
 0001:00010F24       ceflib.TCefDomDocumentRef.GetSelectionEndOffset
 0001:00010F30       ceflib.TCefDomDocumentRef.GetSelectionStartNode
 0001:00010F54       ceflib.TCefDomDocumentRef.GetSelectionStartOffset
 0001:00010F60       ceflib.TCefDomDocumentRef.GetTitle
 0001:00010F80       ceflib.TCefDomDocumentRef.GetType
 0001:00010F8C       ceflib.TCefDomDocumentRef.HasSelection
 0001:00010FA4       ceflib.TCefDomDocumentRef.UnWrap
 0001:00010FF0       ceflib.TCefDomNodeRef.AddEventListener
 0001:000110A8       ceflib.TCefDomNodeRef.AddEventListenerProc
 0001:00011130       ceflib.TCefDomNodeRef.GetAsMarkup
 0001:00011150       ceflib.TCefDomNodeRef.GetDocument
 0001:00011174       ceflib.TCefDomNodeRef.GetElementAttribute
 0001:000111A8       ceflib.TCefDomNodeRef.GetElementAttributes
 0001:000111C8       ceflib.TCefDomNodeRef.GetElementInnerText
 0001:000111E8       ceflib.TCefDomNodeRef.GetElementTagName
 0001:00011208       ceflib.TCefDomNodeRef.GetFirstChild
 0001:0001122C       ceflib.TCefDomNodeRef.GetFormControlElementType
 0001:0001124C       ceflib.TCefDomNodeRef.GetLastChild
 0001:00011270       ceflib.TCefDomNodeRef.GetName
 0001:00011290       ceflib.TCefDomNodeRef.GetNextSibling
 0001:000112B4       ceflib.TCefDomNodeRef.GetParent
 0001:000112D8       ceflib.TCefDomNodeRef.GetPreviousSibling
 0001:000112FC       ceflib.TCefDomNodeRef.GetType
 0001:00011308       ceflib.TCefDomNodeRef.GetValue
 0001:00011328       ceflib.TCefDomNodeRef.HasChildren
 0001:00011340       ceflib.TCefDomNodeRef.HasElementAttribute
 0001:0001136C       ceflib.TCefDomNodeRef.HasElementAttributes
 0001:00011384       ceflib.TCefDomNodeRef.IsElement
 0001:0001139C       ceflib.TCefDomNodeRef.IsFormControlElement
 0001:000113B4       ceflib.TCefDomNodeRef.IsSame
 0001:00011454       ceflib.TCefDomNodeRef.IsText
 0001:0001146C       ceflib.TCefDomNodeRef.SetElementAttribute
 0001:000114AC       ceflib.TCefDomNodeRef.SetValue
 0001:000114D8       ceflib.TCefDomNodeRef.UnWrap
 0001:00011524       ceflib.TCefDomEventListenerOwn.Create
 0001:00011570       ceflib.TCefDomEventListenerOwn.HandleEvent
 0001:00011574       ceflib.TCefDomEventRef.CanBubble
 0001:0001158C       ceflib.TCefDomEventRef.CanCancel
 0001:000115A4       ceflib.TCefDomEventRef.GetCategory
 0001:000115B0       ceflib.TCefDomEventRef.GetCurrentTarget
 0001:000115D4       ceflib.TCefDomEventRef.GetDocument
 0001:000115F8       ceflib.TCefDomEventRef.GetPhase
 0001:00011604       ceflib.TCefDomEventRef.GetTarget
 0001:00011628       ceflib.TCefDomEventRef.GetType
 0001:00011648       ceflib.TCefDomEventRef.UnWrap
 0001:00011694       ceflib.TCefFastDomEventListener.Create
 0001:000116DC       ceflib.TCefFastDomEventListener.HandleEvent
 0001:000116FC       ceflib.TCefResponseRef.GetHeader
 0001:00011730       ceflib.TCefResponseRef.GetHeaderMap
 0001:00011750       ceflib.TCefResponseRef.GetMimeType
 0001:00011770       ceflib.TCefResponseRef.GetStatus
 0001:0001177C       ceflib.TCefResponseRef.GetStatusText
 0001:0001179C       ceflib.TCefResponseRef.SetHeaderMap
 0001:000117BC       ceflib.TCefResponseRef.SetMimeType
 0001:000117E4       ceflib.TCefResponseRef.SetStatus
 0001:000117F4       ceflib.TCefResponseRef.SetStatusText
 0001:0001181C       ceflib.TCefResponseRef.UnWrap
 0001:00011868       ceflib.TCefV8AccessorOwn.Create
 0001:000118BC       ceflib.TCefV8AccessorOwn.Get
 0001:000118D0       ceflib.TCefV8AccessorOwn.Put
 0001:000118DC       ceflib.TCefFastV8Accessor.Create
 0001:00011928       ceflib.TCefFastV8Accessor.Get
 0001:0001196C       ceflib.TCefFastV8Accessor.Put
 0001:00011990       ceflib.TCefClientOwn.Create
 0001:00011A4C       ceflib.TCefClientOwn.GetDisplayHandler
 0001:00011A5C       ceflib.TCefClientOwn.GetDragHandler
 0001:00011A6C       ceflib.TCefClientOwn.GetFindHandler
 0001:00011A7C       ceflib.TCefClientOwn.GetFocusHandler
 0001:00011A8C       ceflib.TCefClientOwn.GetGeolocationHandler
 0001:00011A9C       ceflib.TCefClientOwn.GetV8ContextHandler
 0001:00011AAC       ceflib.TCefClientOwn.GetZoomHandler
 0001:00011ABC       ceflib.TCefClientOwn.GetJsdialogHandler
 0001:00011ACC       ceflib.TCefClientOwn.GetKeyboardHandler
 0001:00011ADC       ceflib.TCefClientOwn.GetLifeSpanHandler
 0001:00011AEC       ceflib.TCefClientOwn.GetLoadHandler
 0001:00011AFC       ceflib.TCefClientOwn.GetMenuHandler
 0001:00011B0C       ceflib.TCefClientOwn.GetPermissionHandler
 0001:00011B1C       ceflib.TCefClientOwn.GetPrintHandler
 0001:00011B2C       ceflib.TCefClientOwn.GetRenderHandler
 0001:00011B3C       ceflib.TCefClientOwn.GetRequestHandler
 0001:00011B4C       ceflib.TCefLifeSpanHandlerOwn.Create
 0001:00011BB8       ceflib.TCefLifeSpanHandlerOwn.OnAfterCreated
 0001:00011BBC       ceflib.TCefLifeSpanHandlerOwn.OnBeforeClose
 0001:00011BC0       ceflib.TCefLifeSpanHandlerOwn.OnBeforePopup
 0001:00011BCC       ceflib.TCefLifeSpanHandlerOwn.DoClose
 0001:00011BD0       ceflib.TCefLifeSpanHandlerOwn.RunModal
 0001:00011BD4       ceflib.TCefLoadHandlerOwn.Create
 0001:00011C30       ceflib.TCefLoadHandlerOwn.OnLoadEnd
 0001:00011C38       ceflib.TCefLoadHandlerOwn.OnLoadError
 0001:00011C44       ceflib.TCefLoadHandlerOwn.OnLoadStart
 0001:00011C48       ceflib.TCefRequestHandlerOwn.Create
 0001:00011CC4       ceflib.TCefRequestHandlerOwn.GetAuthCredentials
 0001:00011CD0       ceflib.TCefRequestHandlerOwn.GetDownloadHandler
 0001:00011CDC       ceflib.TCefRequestHandlerOwn.OnBeforeBrowse
 0001:00011CE8       ceflib.TCefRequestHandlerOwn.OnBeforeResourceLoad
 0001:00011CF4       ceflib.TCefRequestHandlerOwn.OnProtocolExecution
 0001:00011D00       ceflib.TCefRequestHandlerOwn.OnResourceRedirect
 0001:00011D14       ceflib.TCefRequestHandlerOwn.OnResourceResponse
 0001:00011D1C       ceflib.TCefDisplayHandlerOwn.Create
 0001:00011DA0       ceflib.TCefDisplayHandlerOwn.OnAddressChange
 0001:00011DA8       ceflib.TCefDisplayHandlerOwn.OnConsoleMessage
 0001:00011DB4       ceflib.TCefDisplayHandlerOwn.OnContentsSizeChange
 0001:00011DBC       ceflib.TCefDisplayHandlerOwn.OnFaviconUrlChange
 0001:00011DC0       ceflib.TCefDisplayHandlerOwn.OnNavStateChange
 0001:00011DC8       ceflib.TCefDisplayHandlerOwn.OnStatusMessage
 0001:00011DD0       ceflib.TCefDisplayHandlerOwn.OnTitleChange
 0001:00011DD4       ceflib.TCefDisplayHandlerOwn.OnTooltip
 0001:00011DD8       ceflib.TCefFocusHandlerOwn.Create
 0001:00011E34       ceflib.TCefFocusHandlerOwn.OnFocusedNodeChanged
 0001:00011E3C       ceflib.TCefFocusHandlerOwn.OnSetFocus
 0001:00011E40       ceflib.TCefFocusHandlerOwn.OnTakeFocus
 0001:00011E44       ceflib.TCefKeyboardHandlerOwn.Create
 0001:00011E90       ceflib.TCefKeyboardHandlerOwn.OnKeyEvent
 0001:00011E9C       ceflib.TCefMenuHandlerOwn.Create
 0001:00011EF8       ceflib.TCefMenuHandlerOwn.GetMenuLabel
 0001:00011F00       ceflib.TCefMenuHandlerOwn.OnBeforeMenu
 0001:00011F04       ceflib.TCefMenuHandlerOwn.OnMenuAction
 0001:00011F08       ceflib.TCefPermissionHandlerOwn.Create
 0001:00011F54       ceflib.TCefPermissionHandlerOwn.OnBeforeScriptExtensionLoad
 0001:00011F60       ceflib.TCefPrintHandlerOwn.Create
 0001:00011FB4       ceflib.TCefPrintHandlerOwn.GetPrintHeaderFooter
 0001:00011FC0       ceflib.TCefPrintHandlerOwn.GetPrintOptions
 0001:00011FC4       ceflib.TCefFindHandlerOwn.Create
 0001:00012010       ceflib.TCefFindHandlerOwn.OnFindResult
 0001:00012018       ceflib.TCefJsDialogHandlerOwn.Create
 0001:00012074       ceflib.TCefJsDialogHandlerOwn.OnJsAlert
 0001:00012080       ceflib.TCefJsDialogHandlerOwn.OnJsConfirm
 0001:0001208C       ceflib.TCefJsDialogHandlerOwn.OnJsPrompt
 0001:00012098       ceflib.TCefV8ContextHandlerOwn.Create
 0001:000120F4       ceflib.TCefV8ContextHandlerOwn.OnContextCreated
 0001:000120FC       ceflib.TCefV8ContextHandlerOwn.OnContextReleased
 0001:00012104       ceflib.TCefV8ContextHandlerOwn.OnUncaughtException
 0001:0001210C       ceflib.TCefRenderHandlerOwn.Create
 0001:00012188       ceflib.TCefRenderHandlerOwn.GetScreenPoint
 0001:00012194       ceflib.TCefRenderHandlerOwn.GetScreenRect
 0001:00012198       ceflib.TCefRenderHandlerOwn.GetViewRect
 0001:0001219C       ceflib.TCefRenderHandlerOwn.OnCursorChange
 0001:000121A0       ceflib.TCefRenderHandlerOwn.OnPaint
 0001:000121A8       ceflib.TCefRenderHandlerOwn.OnPopupShow
 0001:000121AC       ceflib.TCefRenderHandlerOwn.OnPopupSize
 0001:000121B0       ceflib.TCefDragHandlerOwn.Create
 0001:00012204       ceflib.TCefDragHandlerOwn.OnDragEnter
 0001:00012210       ceflib.TCefDragHandlerOwn.OnDragStart
 0001:0001221C       ceflib.TCefSchemeHandlerCallbackRef.BytesAvailable
 0001:00012228       ceflib.TCefSchemeHandlerCallbackRef.Cancel
 0001:00012234       ceflib.TCefSchemeHandlerCallbackRef.HeadersAvailable
 0001:00012240       ceflib.TCefSchemeHandlerCallbackRef.UnWrap
 0001:0001228C       ceflib.TCefDragDataRef.GetFileName
 0001:000122AC       ceflib.TCefDragDataRef.GetFileNames
 0001:0001237C       ceflib.TCefDragDataRef.GetFragmentBaseUrl
 0001:0001239C       ceflib.TCefDragDataRef.GetFragmentHtml
 0001:000123BC       ceflib.TCefDragDataRef.GetFragmentText
 0001:000123DC       ceflib.TCefDragDataRef.GetLinkMetadata
 0001:000123FC       ceflib.TCefDragDataRef.GetLinkTitle
 0001:0001241C       ceflib.TCefDragDataRef.GetLinkUrl
 0001:0001243C       ceflib.TCefDragDataRef.IsFile
 0001:00012454       ceflib.TCefDragDataRef.IsFragment
 0001:0001246C       ceflib.TCefDragDataRef.IsLink
 0001:00012484       ceflib.TCefDragDataRef.UnWrap
 0001:000124D0       ceflib.TCefV8ExceptionRef.GetEndColumn
 0001:000124DC       ceflib.TCefV8ExceptionRef.GetEndPosition
 0001:000124E8       ceflib.TCefV8ExceptionRef.GetLineNumber
 0001:000124F4       ceflib.TCefV8ExceptionRef.GetMessage
 0001:00012514       ceflib.TCefV8ExceptionRef.GetScriptResourceName
 0001:00012534       ceflib.TCefV8ExceptionRef.GetSourceLine
 0001:00012554       ceflib.TCefV8ExceptionRef.GetStartColumn
 0001:00012560       ceflib.TCefV8ExceptionRef.GetStartPosition
 0001:0001256C       ceflib.TCefV8ExceptionRef.UnWrap
 0001:000125B8       ceflib.TCefProxyHandlerOwn.Create
 0001:00012604       ceflib.TCefResourceBundleHandlerOwn.Create
 0001:00012658       ceflib.TCefFastProxyHandler.Create
 0001:000126A0       ceflib.TCefFastProxyHandler.GetProxyForUrl
 0001:000126BC       ceflib.TCefFastResourceBundle.Create
 0001:00012758       ceflib.TCefFastResourceBundle.GetDataResource
 0001:00012778       ceflib.TCefFastResourceBundle.GetLocalizedString
 0001:000127B8       ceflib.TCefAppOwn.Create
 0001:00012814       ceflib.TCefSchemeRegistrarRef.AddCustomScheme
 0001:00012854       ceflib.TCefSchemeRegistrarRef.UnWrap
 0001:000128A0       ceflib.TCefGeolocationHandlerOwn.Create
 0001:000128F0       ceflib.TCefGeolocationHandlerOwn.OnRequestGeolocationPermission
 0001:000128F8       ceflib.TCefGeolocationHandlerOwn.OnCancelGeolocationPermission
 0001:00012900       ceflib.TCefGeolocationCallbackRef.Cont
 0001:00012910       ceflib.TCefGeolocationCallbackRef.UnWrap
 0001:0001295C       ceflib.TCefZoomHandlerOwn.Create
 0001:000129AC       ceflib.TCefZoomHandlerOwn.OnGetZoomLevel
 0001:000129B8       ceflib.TCefZoomHandlerOwn.OnSetZoomLevel
 0001:000129C4       ceflib.TCefV8StackTraceRef.IsValid
 0001:000129DC       ceflib.TCefV8StackTraceRef.GetFrameCount
 0001:000129E8       ceflib.TCefV8StackTraceRef.GetFrame
 0001:00012A18       ceflib.TCefV8StackTraceRef.UnWrap
 0001:00012A64       ceflib.TCefV8StackTraceRef.Current
 0001:00012A88       ceflib.TCefV8StackFrameRef.IsValid
 0001:00012AA0       ceflib.TCefV8StackFrameRef.GetScriptName
 0001:00012AC0       ceflib.TCefV8StackFrameRef.GetScriptNameOrSourceUrl
 0001:00012AE0       ceflib.TCefV8StackFrameRef.GetFunctionName
 0001:00012B00       ceflib.TCefV8StackFrameRef.GetLineNumber
 0001:00012B0C       ceflib.TCefV8StackFrameRef.GetColumn
 0001:00012B18       ceflib.TCefV8StackFrameRef.IsEval
 0001:00012B30       ceflib.TCefV8StackFrameRef.IsConstructor
 0001:00012B48       ceflib.TCefV8StackFrameRef.UnWrap
 0001:00012B94       ceflib.Finalization
 0001:000153F0       cefgui..TChromiumOptions
 0001:00016228       cefgui..TChromiumFontOptions
 0001:00016760       cefgui..TCustomClientHandler
 0001:00016AC8       cefgui..TCustomLifeSpanHandler
 0001:00016BF0       cefgui..TCustomLoadHandler
 0001:00016D08       cefgui..TCustomRequestHandler
 0001:00016E38       cefgui..TCustomDisplayHandler
 0001:00016F6C       cefgui..TCustomFocusHandler
 0001:00017088       cefgui..TCustomKeyboardHandler
 0001:000171A0       cefgui..TCustomMenuHandler
 0001:000172B8       cefgui..TCustomPermissionHandler
 0001:000173D8       cefgui..TCustomPrintHandler
 0001:000174F0       cefgui..TCustomFindHandler
 0001:00017600       cefgui..TCustomJsDialogHandler
 0001:00017720       cefgui..TCustomV8ContextHandler
 0001:00017844       cefgui..TCustomRenderHandler
 0001:00017974       cefgui..TCustomDragHandler
 0001:00017A88       cefgui..TCustomGeolocationHandler
 0001:00017BB4       cefgui..TCustomZoomHandler
 0001:00017CD4       cefgui.TChromiumFontOptions.Create
 0001:00017D58       cefgui.TCustomClientHandler.Create
 0001:00017F88       cefgui.TCustomClientHandler.Disconnect
 0001:00018014       cefgui.TCustomClientHandler.GetDisplayHandler
 0001:0001802C       cefgui.TCustomClientHandler.GetDragHandler
 0001:00018044       cefgui.TCustomClientHandler.GetFindHandler
 0001:0001805C       cefgui.TCustomClientHandler.GetFocusHandler
 0001:00018074       cefgui.TCustomClientHandler.GetGeolocationHandler
 0001:0001808C       cefgui.TCustomClientHandler.GetV8ContextHandler
 0001:000180A4       cefgui.TCustomClientHandler.GetZoomHandler
 0001:000180BC       cefgui.TCustomClientHandler.GetJsdialogHandler
 0001:000180D4       cefgui.TCustomClientHandler.GetKeyboardHandler
 0001:000180EC       cefgui.TCustomClientHandler.GetLifeSpanHandler
 0001:00018104       cefgui.TCustomClientHandler.GetLoadHandler
 0001:0001811C       cefgui.TCustomClientHandler.GetMenuHandler
 0001:00018134       cefgui.TCustomClientHandler.GetPermissionHandler
 0001:0001814C       cefgui.TCustomClientHandler.GetPrintHandler
 0001:00018164       cefgui.TCustomClientHandler.GetRenderHandler
 0001:0001817C       cefgui.TCustomClientHandler.GetRequestHandler
 0001:00018194       cefgui.TCustomLifeSpanHandler.Create
 0001:000181DC       cefgui.TCustomLifeSpanHandler.OnAfterCreated
 0001:000181EC       cefgui.TCustomLifeSpanHandler.OnBeforeClose
 0001:000181FC       cefgui.TCustomLifeSpanHandler.OnBeforePopup
 0001:00018234       cefgui.TCustomLifeSpanHandler.DoClose
 0001:00018244       cefgui.TCustomLifeSpanHandler.RunModal
 0001:00018254       cefgui.TCustomLoadHandler.Create
 0001:0001829C       cefgui.TCustomLoadHandler.OnLoadEnd
 0001:000182B8       cefgui.TCustomLoadHandler.OnLoadError
 0001:000182DC       cefgui.TCustomLoadHandler.OnLoadStart
 0001:000182EC       cefgui.TCustomRequestHandler.Create
 0001:00018334       cefgui.TCustomRequestHandler.GetAuthCredentials
 0001:00018364       cefgui.TCustomRequestHandler.GetDownloadHandler
 0001:00018388       cefgui.TCustomRequestHandler.OnBeforeBrowse
 0001:000183AC       cefgui.TCustomRequestHandler.OnBeforeResourceLoad
 0001:000183D4       cefgui.TCustomRequestHandler.OnProtocolExecution
 0001:000183F0       cefgui.TCustomRequestHandler.OnResourceRedirect
 0001:00018424       cefgui.TCustomRequestHandler.OnResourceResponse
 0001:00018444       cefgui.TCustomDisplayHandler.Create
 0001:0001848C       cefgui.TCustomDisplayHandler.OnAddressChange
 0001:000184A8       cefgui.TCustomDisplayHandler.OnConsoleMessage
 0001:000184C8       cefgui.TCustomDisplayHandler.OnContentsSizeChange
 0001:000184E8       cefgui.TCustomDisplayHandler.OnFaviconUrlChange
 0001:00018504       cefgui.TCustomDisplayHandler.OnNavStateChange
 0001:00018520       cefgui.TCustomDisplayHandler.OnStatusMessage
 0001:0001853C       cefgui.TCustomDisplayHandler.OnTitleChange
 0001:00018550       cefgui.TCustomDisplayHandler.OnTooltip
 0001:00018564       cefgui.TCustomFocusHandler.Create
 0001:000185AC       cefgui.TCustomFocusHandler.OnFocusedNodeChanged
 0001:000185CC       cefgui.TCustomFocusHandler.OnSetFocus
 0001:000185E8       cefgui.TCustomFocusHandler.OnTakeFocus
 0001:00018604       cefgui.TCustomKeyboardHandler.Create
 0001:0001864C       cefgui.TCustomKeyboardHandler.OnKeyEvent
 0001:0001867C       cefgui.TCustomMenuHandler.Create
 0001:000186C4       cefgui.TCustomMenuHandler.GetMenuLabel
 0001:000186E8       cefgui.TCustomMenuHandler.OnBeforeMenu
 0001:00018704       cefgui.TCustomMenuHandler.OnMenuAction
 0001:00018720       cefgui.TCustomPermissionHandler.Create
 0001:00018768       cefgui.TCustomPermissionHandler.OnBeforeScriptExtensionLoad
 0001:00018784       cefgui.TCustomPrintHandler.Create
 0001:000187CC       cefgui.TCustomPrintHandler.GetPrintHeaderFooter
 0001:00018810       cefgui.TCustomPrintHandler.GetPrintOptions
 0001:00018828       cefgui.TCustomFindHandler.Create
 0001:00018870       cefgui.TCustomFindHandler.OnFindResult
 0001:0001889C       cefgui.TCustomJsDialogHandler.Create
 0001:000188E4       cefgui.TCustomJsDialogHandler.OnJsAlert
 0001:00018900       cefgui.TCustomJsDialogHandler.OnJsConfirm
 0001:00018920       cefgui.TCustomJsDialogHandler.OnJsPrompt
 0001:00018948       cefgui.TCustomV8ContextHandler.Create
 0001:00018990       cefgui.TCustomV8ContextHandler.OnContextCreated
 0001:000189B4       cefgui.TCustomV8ContextHandler.OnContextReleased
 0001:000189D8       cefgui.TCustomRenderHandler.Create
 0001:00018A20       cefgui.TCustomRenderHandler.GetScreenPoint
 0001:00018A4C       cefgui.TCustomRenderHandler.GetScreenRect
 0001:00018A68       cefgui.TCustomRenderHandler.GetViewRect
 0001:00018A84       cefgui.TCustomRenderHandler.OnCursorChange
 0001:00018AA0       cefgui.TCustomRenderHandler.OnPaint
 0001:00018ACC       cefgui.TCustomRenderHandler.OnPopupShow
 0001:00018AE8       cefgui.TCustomRenderHandler.OnPopupSize
 0001:00018B04       cefgui.TCustomDragHandler.Create
 0001:00018B4C       cefgui.TCustomDragHandler.OnDragEnter
 0001:00018B70       cefgui.TCustomDragHandler.OnDragStart
 0001:00018B94       cefgui.TCustomGeolocationHandler.Create
 0001:00018BDC       cefgui.TCustomGeolocationHandler.OnCancelGeolocationPermission
 0001:00018C00       cefgui.TCustomGeolocationHandler.OnRequestGeolocationPermission
 0001:00018C28       cefgui.TCustomZoomHandler.Create
 0001:00018C70       cefgui.TCustomZoomHandler.OnGetZoomLevel
 0001:00018C94       cefgui.TCustomZoomHandler.OnSetZoomLevel
 0001:0001913C       cefvcl..TCustomChromium
 0001:00019A48       cefvcl..TChromium
 0001:0001A6DC       cefvcl..TVCLClientHandler
 0001:0001A830       cefvcl.TimerProc
 0001:0001A880       cefvcl.TVCLClientHandler.Create
 0001:0001A8E4       cefvcl.TVCLClientHandler.Destroy
 0001:0001A930       cefvcl.TCustomChromium.Create
 0001:0001AA04       cefvcl.TCustomChromium.CreateBrowser
 0001:0001AB20       cefvcl.TCustomChromium.CreateWindowHandle
 0001:0001AB38       cefvcl.TCustomChromium.Destroy
 0001:0001AC04       cefvcl.TCustomChromium.doOnAddressChange
 0001:0001AC30       cefvcl.TCustomChromium.doOnAfterCreated
 0001:0001AC54       cefvcl.TCustomChromium.doOnAuthCredentials
 0001:0001ACA0       cefvcl.TCustomChromium.doOnBeforeBrowse
 0001:0001ACE4       cefvcl.TCustomChromium.doOnBeforeMenu
 0001:0001AD18       cefvcl.TCustomChromium.doOnBeforePopup
 0001:0001AD58       cefvcl.TCustomChromium.doOnBeforeResourceLoad
 0001:0001AD9C       cefvcl.TCustomChromium.doOnBeforeScriptExtensionLoad
 0001:0001ADC8       cefvcl.TCustomChromium.doOnBeforeClose
 0001:0001ADFC       cefvcl.TCustomChromium.doOnConsoleMessage
 0001:0001AE38       cefvcl.TCustomChromium.doOnContentsSizeChange
 0001:0001AE68       cefvcl.TCustomChromium.doOnContextCreated
 0001:0001AE94       cefvcl.TCustomChromium.doOnContextReleased
 0001:0001AEC0       cefvcl.TCustomChromium.doOnGetDownloadHandler
 0001:0001AF04       cefvcl.TCustomChromium.doOnFaviconUrlChange
 0001:0001AF28       cefvcl.TCustomChromium.doOnFindResult
 0001:0001AF70       cefvcl.TCustomChromium.doOnFocusedNodeChanged
 0001:0001AF9C       cefvcl.TCustomChromium.doOnGetMenuLabel
 0001:0001AFD4       cefvcl.TCustomChromium.doOnGetScreenPoint
 0001:0001AFE0       cefvcl.TCustomChromium.doOnGetScreenRect
 0001:0001AFE4       cefvcl.TCustomChromium.doOnGetViewRect
 0001:0001AFE8       cefvcl.TCustomChromium.doOnGetZoomLevel
 0001:0001B020       cefvcl.TCustomChromium.doOnJsAlert
 0001:0001B058       cefvcl.TCustomChromium.doOnJsBinding
 0001:0001B090       cefvcl.TCustomChromium.doOnJsConfirm
 0001:0001B0CC       cefvcl.TCustomChromium.doOnJsPrompt
 0001:0001B110       cefvcl.TCustomChromium.doOnKeyEvent
 0001:0001B158       cefvcl.TCustomChromium.doOnLoadEnd
 0001:0001B190       cefvcl.TCustomChromium.doOnLoadError
 0001:0001B1D0       cefvcl.TCustomChromium.doOnLoadStart
 0001:0001B1F4       cefvcl.TCustomChromium.doOnMenuAction
 0001:0001B228       cefvcl.TCustomChromium.doOnNavStateChange
 0001:0001B264       cefvcl.TCustomChromium.doOnCursorChange
 0001:0001B268       cefvcl.TCustomChromium.doOnDragEnter
 0001:0001B2A0       cefvcl.TCustomChromium.doOnDragStart
 0001:0001B2D8       cefvcl.TCustomChromium.doOnPaint
 0001:0001B2E0       cefvcl.TCustomChromium.doOnPopupShow
 0001:0001B2E4       cefvcl.TCustomChromium.doOnPopupSize
 0001:0001B2E8       cefvcl.TCustomChromium.doOnPrintHeaderFooter
 0001:0001B348       cefvcl.TCustomChromium.doOnPrintOptions
 0001:0001B37C       cefvcl.TCustomChromium.doOnProtocolExecution
 0001:0001B3B4       cefvcl.TCustomChromium.doOnCancelGeolocationPermission
 0001:0001B3E0       cefvcl.TCustomChromium.doOnClose
 0001:0001B414       cefvcl.TCustomChromium.doOnRequestGeolocationPermission
 0001:0001B444       cefvcl.TCustomChromium.doOnResourceRedirect
 0001:0001B488       cefvcl.TCustomChromium.doOnResourceResponse
 0001:0001B4B8       cefvcl.TCustomChromium.doOnRunModal
 0001:0001B4EC       cefvcl.TCustomChromium.doOnSetFocus
 0001:0001B520       cefvcl.TCustomChromium.doOnSetZoomLevel
 0001:0001B55C       cefvcl.TCustomChromium.doOnStatusMessage
 0001:0001B594       cefvcl.TCustomChromium.doOnTakeFocus
 0001:0001B5B8       cefvcl.TCustomChromium.doOnTitleChange
 0001:0001B5EC       cefvcl.TCustomChromium.doOnTooltip
 0001:0001B620       cefvcl.TCustomChromium.GetSettings
 0001:0001BA90       cefvcl.TCustomChromium.Load
 0001:0001BAFC       cefvcl.TCustomChromium.Loaded
 0001:0001BB1C       cefvcl.TCustomChromium.ReCreateBrowser
 0001:0001BB90       cefvcl.TCustomChromium.Resize
 0001:0001BC70       cefvcl.TCustomChromium.WndProc
 0001:0001BD28       cefvcl.Finalization
 0001:0001BD30       ScktComp.TCustomWinSocket.ReceiveBuf
 0001:0001BD38       ScktComp.TCustomWinSocket.ReceiveLength
 0001:0001BD40       GIFImg.Finalization
 0001:0001BD48       jpeg.Finalization
 0001:0001BD50       uBaseForm.TBaseForm.Create
 0001:0001BD58       uBaseForm.TBaseForm.Destroy
 0001:0001BD60       uBaseForm.TBaseForm.HandleAuthority
 0001:0001BD68       FunctionItemIntf.TFunctionPermission.Create
 0001:0001BD70       FunctionItemIntf.TFunctionPermission.addorsetSubFunction
 0001:0001BD78       Services.FactoryManager
 0001:0001BD80       Services.SysService
 0001:0001BD88       Services.SysDialogs
 0001:0001BD90       Services.SysLog
 0001:0001BD98       Services.SysInfo
 0001:0001BDA0       Services.SysMainForm
 0001:0001BDA8       Services.SysFunctionMgr
 0001:0001BDB0       Services.SysSplashForm
 0001:0001BDB8       Services.Finalization
 0001:0001BDC0       PubFn.getParametervalue
 0001:0001BDC8       PubFn.getWeekNum
 0001:0001BDD0       PubFn.Finalization
 0001:0001BDD8       GdiPlus.Finalization
 0001:0001BDE0       CheckLst.Finalization
 0001:0001BDE8       WinSkinData.TSkinData.AddNestForm
 0001:0001BDF0       WinSkinData.TSkinData.LoadFromFile
 0001:0001BDF8       WinSkinData.TSkinData.SetActive
 0001:0001BE00       WinSkinData.Finalization
 0001:0001BE08       WinSkinIni.Finalization
 0001:0001BE10       ImgUtil.Finalization
 0001:0001BE18       Buttons.TBitBtn.GetGlyph
 0001:0001BE20       Buttons.Finalization
 0001:0001BE28       Tabs.Finalization
 0001:0001BE30       WinSkinDlg.Finalization
 0001:0001BE38       WinSkinForm.Finalization
 0001:0001BE40       superobject.Finalization
 0001:0001BE48       SysFactoryMgr.TSysFactoryManager.FindFactory
 0001:0001BE50       SysFactoryMgr.TSysFactoryManager.ReleaseInstances
 0001:0001BE58       SysFactoryMgr.TSysFactoryManager.UnRegisterFactory
 0001:0001BE60       SysFactoryMgr.Finalization
 0001:0001BE68       CardManage.TCardManage.Destory
 0001:0001BE70       CardManage.Finalization
 0001:0001BE78       SystemInstance.Finalization
 0001:0001BECC       SysSvc..TSysService
 0001:0001BF78       SysSvc.TSysService._AddRef
 0001:0001BF8C       SysSvc.TSysService._Release
 0001:0001BFB4       SysSvc.TSysService.QueryInterface
 0001:0001C034       SysSvc.Finalization
 0001:0001C03C       UFrmException..TfrmException
 0001:0001C47C       UFrmException.TfrmException.FormClose
 0001:0001C480       UFrmException.TfrmException.FormShow
 0001:0001C48C       UFrmException.TfrmException.GetExceptionClass
 0001:0001C4A8       UFrmException.TfrmException.GetExceptionMsg
 0001:0001C4C4       UFrmException.TfrmException.GetSourceClass
 0001:0001C4E0       UFrmException.TfrmException.SetExceptionClass
 0001:0001C4F0       UFrmException.TfrmException.SetExceptionMsg
 0001:0001C500       UFrmException.TfrmException.SetSourceClass
 0001:0001C510       ceffilescheme..TFileScheme
 0001:0001C6F8       ceffilescheme.Escape
 0001:0001C7F4       ceffilescheme..TFileInfo
 0001:0001CA04       ceffilescheme.TFileInfo.Create
 0001:0001CA70       ceffilescheme.TFileInfo.DisplaySize
 0001:0001CCF8       ceffilescheme.TFileInfo.DisplayDate
 0001:0001CD60       ceffilescheme.TFileInfo.Display
 0001:0001CE94       ceffilescheme.FileSortCompare
 0001:0001CEE0       ceffilescheme.HTTPDecode
 0001:0001D01C       ceffilescheme.ParseFileUrl
 0001:0001D170       ceffilescheme.TFileScheme.Cancel
 0001:0001D17C       ceffilescheme.TFileScheme.Create
 0001:0001D1C8       ceffilescheme.TFileScheme.Destroy
 0001:0001D200       ceffilescheme.TFileScheme.GetResponseHeaders
 0001:0001D240       ceffilescheme.OutPut
 0001:0001D2BC       ceffilescheme.OutputUTF8
 0001:0001D338       ceffilescheme.TFileScheme.ProcessRequest
 0001:0001DB40       ceffilescheme.TFileScheme.ReadResponse
 0001:0001DB68       UFrmMain..TMenuItem
 0001:0001DCC4       UFrmMain..TTabSheet
 0001:0001DE58       UFrmMain..TToolButton
 0001:0001DFB8       UFrmMain..TNovaSplitter
 0001:0001E2C8       UFrmMain..TfrmMain
 0001:00020D04       UFrmMain..TExtension
 0001:00020E2C       UFrmMain..TEnumerator<TPair<System.Integer,ExtCtrls.TImage>>
 0001:00020F70       UFrmMain..TEnumerable<TPair<System.Integer,ExtCtrls.TImage>>
 0001:00021310       UFrmMain..TEnumerator<System.Integer>
 0001:00021424       UFrmMain..TEnumerable<System.Integer>
 0001:00021514       UFrmMain..TDictionary<System.Integer,ExtCtrls.TImage>.TKeyEnumerator
 0001:000216DC       UFrmMain..TDictionary<System.Integer,ExtCtrls.TImage>.TKeyCollection
 0001:00021890       UFrmMain..TEnumerator<ExtCtrls.TImage>
 0001:000219A8       UFrmMain..TEnumerable<ExtCtrls.TImage>
 0001:00021A98       UFrmMain..TDictionary<System.Integer,ExtCtrls.TImage>.TValueEnumerator
 0001:00021C64       UFrmMain..TDictionary<System.Integer,ExtCtrls.TImage>.TValueCollection
 0001:00021E1C       UFrmMain..TDictionary<System.Integer,ExtCtrls.TImage>.TPairEnumerator
 0001:00021FE4       UFrmMain..TDictionary<System.Integer,ExtCtrls.TImage>
 0001:00022694       UFrmMain.TExtension.Execute
 0001:00024A90       UFrmMain.CefOnRegisterCustomSchemes
 0001:00024AC0       UFrmMain.TfrmMain.CreateMenu
 0001:00024F28       UFrmMain.TfrmMain.ExitApplication
 0001:000251E8       UFrmMain.TfrmMain.findmenuitem
 0001:000254A4       UFrmMain.findmenuitem
 0001:00025524       UFrmMain.TfrmMain.findParentMenuItem
 0001:00025550       UFrmMain.TfrmMain.FindTab
 0001:000255B0       UFrmMain.TfrmMain.FormActivate
 0001:0002560C       UFrmMain.TfrmMain.FormClose
 0001:00025628       UFrmMain.TfrmMain.FormCloseQuery
 0001:0002564C       UFrmMain.TfrmMain.FormCreate
 0001:00025B14       UFrmMain.TfrmMain.FormDeactivate
 0001:00025B64       UFrmMain.TfrmMain.FormDestroy
 0001:00025B70       UFrmMain.TfrmMain.FormKeyDown
 0001:00025BC4       UFrmMain.TfrmMain.FormKeyPress
 0001:00025C00       UFrmMain.TfrmMain.FormKeyUp
 0001:00025D68       UFrmMain.TfrmMain.FormShow
 0001:00025F94       UFrmMain.TfrmMain.freePoint
 0001:00025F98       UFrmMain.findmenuitem
 0001:0002601C       UFrmMain.TfrmMain.handMenuShortCut
 0001:00026068       UFrmMain.TfrmMain.HeartBeatTimerTimer
 0001:00026090       UFrmMain.TfrmMain.imgbalanceClick
 0001:00026320       UFrmMain.TfrmMain.imgbalanceMouseLeave
 0001:00026454       UFrmMain.TfrmMain.imgbaseClick
 0001:000266B8       UFrmMain.TfrmMain.imgbaseMouseLeave
 0001:000267E4       UFrmMain.TfrmMain.initMenuStyle
 0001:000269E4       UFrmMain.TfrmMain.locationTab
 0001:00026B30       UFrmMain.TfrmMain.loadchrom
 0001:00026D74       UFrmMain.TfrmMain.setLblloginname
 0001:00026D84       UFrmMain.TfrmMain.lockscreenbtnClick
 0001:00026E50       UFrmMain.TfrmMain.lockscreenbtnMouseDown
 0001:00026E60       UFrmMain.TfrmMain.lockscreenbtnMouseLeave
 0001:00026F04       UFrmMain.TfrmMain.lockscreenbtnMouseMove
 0001:00026FA8       UFrmMain.CreateMenuItem
 0001:00027064       UFrmMain.TfrmMain.CreateMenu
 0001:0002719C       UFrmMain.TfrmMain.showFormModal
 0001:00027208       UFrmMain.TfrmMain.ShowStatus
 0001:00027250       UFrmMain.TfrmMain.StatusBarDrawPanel
 0001:000272D0       UFrmMain.TfrmMain.imgsystemClick
 0001:00027500       UFrmMain.TfrmMain.imgsystemMouseLeave
 0001:00027630       UFrmMain.TfrmMain.Timer1Timer
 0001:0002776C       UFrmMain.TfrmMain.tmr1Timer
 0001:00027828       UFrmMain.TfrmMain.tmrTimeTimer
 0001:00027960       UFrmMain.TfrmMain.tmrwebmenuTimer
 0001:00027A2C       UFrmMain.TfrmMain.imgvehiclecheckClick
 0001:00027CA4       UFrmMain.TfrmMain.imgvehiclecheckMouseLeave
 0001:00027DE0       UFrmMain.TfrmMain.pnlmenuMouseLeave
 0001:00027DE4       UFrmMain.TfrmMain.DeleteMenu
 0001:00027DE8       UFrmMain.TfrmMain.imgdispatchClick
 0001:0002807C       UFrmMain.TfrmMain.imgdispatchMouseLeave
 0001:000281B0       UFrmMain.TfrmMain.imghideClick
 0001:00028350       UFrmMain.TfrmMain.aboutbtnMouseDown
 0001:00028360       UFrmMain.TfrmMain.aboutbtnMouseLeave
 0001:00028404       UFrmMain.TfrmMain.aboutbtnMouseMove
 0001:000284A8       UFrmMain.TfrmMain.AddImage
 0001:00028508       UFrmMain.TfrmMain.ApplicationEvents1Exception
 0001:000287E0       UFrmMain.TfrmMain.BitBtn_ReLoadClick
 0001:00028B68       UFrmMain.TfrmMain.BitBtn_ReLoadMouseDown
 0001:00028B78       UFrmMain.TfrmMain.BitBtn_ReLoadMouseLeave
 0001:00028C1C       UFrmMain.TfrmMain.BitBtn_ReLoadMouseMove
 0001:00028CC0       UFrmMain.TfrmMain.imgarchiveClick
 0001:00028F2C       UFrmMain.TfrmMain.imgarchiveMouseLeave
 0001:00029060       UFrmMain.TfrmMain.CreateToolButton
 0001:00029090       UFrmMain.TfrmMain.menuItemClick
 0001:0002921C       UFrmMain.TfrmMain.modifypwdbtnClick
 0001:000292E8       UFrmMain.TfrmMain.modifypwdbtnMouseDown
 0001:000292F8       UFrmMain.TfrmMain.modifypwdbtnMouseLeave
 0001:0002939C       UFrmMain.TfrmMain.modifypwdbtnMouseMove
 0001:00029440       UFrmMain.TfrmMain.CloseForm
 0001:00029484       UFrmMain.TfrmMain.exitbtnClick
 0001:00029528       UFrmMain.TfrmMain.exitbtnMouseDown
 0001:00029538       UFrmMain.TfrmMain.exitbtnMouseLeave
 0001:000295DC       UFrmMain.TfrmMain.exitbtnMouseMove
 0001:00029680       UFrmMain.TfrmMain.aboutbtnClick
 0001:0002974C       UFrmMain.TfrmMain.btnRootClick
 0001:00029760       UFrmMain.TfrmMain.btnToolButtonClick
 0001:00029788       UFrmMain.TfrmMain.imgcheckticketClick
 0001:000299FC       UFrmMain.TfrmMain.imgcheckticketMouseLeave
 0001:00029B38       UFrmMain.TfrmMain.imgpackClick
 0001:00029DA0       UFrmMain.TfrmMain.imgpackMouseLeave
 0001:00029ECC       UFrmMain.TfrmMain.pgcFormsChange
 0001:00029F28       UFrmMain.TfrmMain.pgcFormsChanging
 0001:00029F6C       UFrmMain.TfrmMain.pgcFormsMouseDown
 0001:00029F7C       UFrmMain.TfrmMain.pnlLeftMouseMove
 0001:00029F84       UFrmMain.TfrmMain.imgqueryClick
 0001:0002A1D4       UFrmMain.TfrmMain.imgqueryMouseLeave
 0001:0002A304       UFrmMain.TfrmMain.refreshPath
 0001:0002A584       UFrmMain.TfrmMain.imgreportClick
 0001:0002A7D4       UFrmMain.TfrmMain.imgreportMouseLeave
 0001:0002A904       UFrmMain.TfrmMain.RzGroup1Items0Click
 0001:0002A988       UFrmMain.TfrmMain.imgsaleClick
 0001:0002ABEC       UFrmMain.TfrmMain.imgsaleMouseLeave
 0001:0002AD18       UFrmMain.TfrmMain.screenActiveControlChange
 0001:0002AD74       UFrmMain.TfrmMain.scrlbxleftResize
 0001:0002ADD0       UFrmMain.TfrmMain.ShowForm
 0001:0002AEE8       UFrmMain.TfrmMain.ServerSocket1ClientRead
 0001:0002B018       UFrmMain.TfrmMain.ShowForm
 0001:0002B1D0       UFrmMain.TfrmMain.showFormModal
 0001:0002B288       UFrmMain.TfrmMain.ClosePage
 0001:0002B2F4       UFrmMain.TfrmMain.CNTabClose
 0001:0002B418       UFrmMain.TfrmMain.SplitString
 0001:0002B4EC       UFrmMain.TNovaSplitter.Create
 0001:0002B52C       UFrmMain.TNovaSplitter.DblClick
 0001:0002B598       UFrmMain.TNovaSplitter.FindControl
 0001:0002B714       UFrmMain.TNovaSplitter.MouseDown
 0001:0002B73C       UFrmMain.TNovaSplitter.MouseMove
 0001:0002B760       UFrmMain.TNovaSplitter.MouseUp
 0001:0002B794       UFrmMain.Finalization
 0001:0002B804       UFrmMain..UFrmMain$ActRec
 0001:0002B89C       UFrmMain.UFrmMain$ActRec.$0$Body
 0001:0002B8A8       UFrmMain.TPair<System.Integer,ExtCtrls.TImage>.Create
 0001:0002B8B0       UFrmMain.TEnumerable<TPair<System.Integer,ExtCtrls.TImage>>.GetEnumerator
 0001:0002B8BC       UFrmMain.TEnumerator<TPair<System.Integer,ExtCtrls.TImage>>.MoveNext
 0001:0002B8C8       UFrmMain.TDictionary<System.Integer,ExtCtrls.TImage>.SetCapacity
 0001:0002B90C       UFrmMain.TDictionary<System.Integer,ExtCtrls.TImage>.Rehash
 0001:0002B9F4       UFrmMain.TDictionary<System.Integer,ExtCtrls.TImage>.Grow
 0001:0002BA1C       UFrmMain.TDictionary<System.Integer,ExtCtrls.TImage>.GetBucketIndex
 0001:0002BAA0       UFrmMain.TDictionary<System.Integer,ExtCtrls.TImage>.Hash
 0001:0002BAC4       UFrmMain.TDictionary<System.Integer,ExtCtrls.TImage>.GetItem
 0001:0002BB0C       UFrmMain.TDictionary<System.Integer,ExtCtrls.TImage>.RehashAdd
 0001:0002BB54       UFrmMain.TDictionary<System.Integer,ExtCtrls.TImage>.DoAdd
 0001:0002BBA4       UFrmMain.TDictionary<System.Integer,ExtCtrls.TImage>.DoSetValue
 0001:0002BBE0       UFrmMain.TDictionary<System.Integer,ExtCtrls.TImage>.DoRemove
 0001:0002BCD0       UFrmMain.TDictionary<System.Integer,ExtCtrls.TImage>.DoGetEnumerator
 0001:0002BCDC       UFrmMain.TDictionary<System.Integer,ExtCtrls.TImage>.KeyNotify
 0001:0002BCF8       UFrmMain.TDictionary<System.Integer,ExtCtrls.TImage>.ValueNotify
 0001:0002BD14       UFrmMain.TDictionary<System.Integer,ExtCtrls.TImage>.Create
 0001:0002BD50       UFrmMain.TDictionary<System.Integer,ExtCtrls.TImage>.Create
 0001:0002BD8C       UFrmMain.TDictionary<System.Integer,ExtCtrls.TImage>.Create
 0001:0002BE44       UFrmMain.TDictionary<System.Integer,ExtCtrls.TImage>.Create
 0001:0002BEF4       UFrmMain.TDictionary<System.Integer,ExtCtrls.TImage>.Create
 0001:0002BFA8       UFrmMain.TDictionary<System.Integer,ExtCtrls.TImage>.Destroy
 0001:0002BFE8       UFrmMain.TDictionary<System.Integer,ExtCtrls.TImage>.Add
 0001:0002C054       UFrmMain.TDictionary<System.Integer,ExtCtrls.TImage>.Remove
 0001:0002C078       UFrmMain.TDictionary<System.Integer,ExtCtrls.TImage>.ExtractPair
 0001:0002C0C4       UFrmMain.TDictionary<System.Integer,ExtCtrls.TImage>.Clear
 0001:0002C194       UFrmMain.TDictionary<System.Integer,ExtCtrls.TImage>.TrimExcess
 0001:0002C1A4       UFrmMain.TDictionary<System.Integer,ExtCtrls.TImage>.TryGetValue
 0001:0002C1F0       UFrmMain.TDictionary<System.Integer,ExtCtrls.TImage>.AddOrSetValue
 0001:0002C254       UFrmMain.TDictionary<System.Integer,ExtCtrls.TImage>.ContainsKey
 0001:0002C27C       UFrmMain.TDictionary<System.Integer,ExtCtrls.TImage>.ContainsValue
 0001:0002C310       UFrmMain.TDictionary<System.Integer,ExtCtrls.TImage>.GetKeys
 0001:0002C334       UFrmMain.TDictionary<System.Integer,ExtCtrls.TImage>.GetValues
 0001:0002C358       UFrmMain.TDictionary<System.Integer,ExtCtrls.TImage>.GetEnumerator
 0001:0002C36C       UFrmMain.TEnumerable<System.Integer>.GetEnumerator
 0001:0002C378       UFrmMain.TEnumerator<System.Integer>.MoveNext
 0001:0002C384       UFrmMain.TDictionary<System.Integer,ExtCtrls.TImage>.TKeyCollection.GetCount
 0001:0002C38C       UFrmMain.TDictionary<System.Integer,ExtCtrls.TImage>.TKeyCollection.DoGetEnumerator
 0001:0002C398       UFrmMain.TDictionary<System.Integer,ExtCtrls.TImage>.TKeyCollection.Create
 0001:0002C3D8       UFrmMain.TDictionary<System.Integer,ExtCtrls.TImage>.TKeyCollection.GetEnumerator
 0001:0002C3EC       UFrmMain.TDictionary<System.Integer,ExtCtrls.TImage>.TKeyEnumerator.GetCurrent
 0001:0002C400       UFrmMain.TDictionary<System.Integer,ExtCtrls.TImage>.TKeyEnumerator.DoGetCurrent
 0001:0002C40C       UFrmMain.TDictionary<System.Integer,ExtCtrls.TImage>.TKeyEnumerator.DoMoveNext
 0001:0002C418       UFrmMain.TDictionary<System.Integer,ExtCtrls.TImage>.TKeyEnumerator.Create
 0001:0002C460       UFrmMain.TDictionary<System.Integer,ExtCtrls.TImage>.TKeyEnumerator.MoveNext
 0001:0002C49C       UFrmMain.TEnumerable<ExtCtrls.TImage>.GetEnumerator
 0001:0002C4A8       UFrmMain.TEnumerator<ExtCtrls.TImage>.MoveNext
 0001:0002C4B4       UFrmMain.TDictionary<System.Integer,ExtCtrls.TImage>.TValueCollection.GetCount
 0001:0002C4BC       UFrmMain.TDictionary<System.Integer,ExtCtrls.TImage>.TValueCollection.DoGetEnumerator
 0001:0002C4C8       UFrmMain.TDictionary<System.Integer,ExtCtrls.TImage>.TValueCollection.Create
 0001:0002C508       UFrmMain.TDictionary<System.Integer,ExtCtrls.TImage>.TValueCollection.GetEnumerator
 0001:0002C51C       UFrmMain.TDictionary<System.Integer,ExtCtrls.TImage>.TValueEnumerator.GetCurrent
 0001:0002C530       UFrmMain.TDictionary<System.Integer,ExtCtrls.TImage>.TValueEnumerator.DoGetCurrent
 0001:0002C53C       UFrmMain.TDictionary<System.Integer,ExtCtrls.TImage>.TValueEnumerator.DoMoveNext
 0001:0002C548       UFrmMain.TDictionary<System.Integer,ExtCtrls.TImage>.TValueEnumerator.Create
 0001:0002C590       UFrmMain.TDictionary<System.Integer,ExtCtrls.TImage>.TValueEnumerator.MoveNext
 0001:0002C5CC       UFrmMain.TDictionary<System.Integer,ExtCtrls.TImage>.TPairEnumerator.GetCurrent
 0001:0002C5F4       UFrmMain.TDictionary<System.Integer,ExtCtrls.TImage>.TPairEnumerator.DoGetCurrent
 0001:0002C60C       UFrmMain.TDictionary<System.Integer,ExtCtrls.TImage>.TPairEnumerator.DoMoveNext
 0001:0002C618       UFrmMain.TDictionary<System.Integer,ExtCtrls.TImage>.TPairEnumerator.Create
 0001:0002C660       UFrmMain.TDictionary<System.Integer,ExtCtrls.TImage>.TPairEnumerator.MoveNext
 0001:0002C69C       UFrmMain.TEqualityComparer<System.Integer>.Default
 0001:0002C6C0       UFrmMain.TEqualityComparer<ExtCtrls.TImage>.Default
 0001:0002C6E4       UFrmSplash..TfrmSplash
 0001:0002C930       SysFactory.TIntfFactory.Create
 0001:0002C938       SysFactory.TSingletonFactory.Create
 0001:0002C9B0       SplashFormImpl..TSplashFormObj
 0001:0002CAE0       SplashFormImpl.TSplashFormObj.Create
 0001:0002CB24       SplashFormImpl.TSplashFormObj.Destroy
 0001:0002CB58       SplashFormImpl.TSplashFormObj.Hide
 0001:0002CB68       SplashFormImpl.TSplashFormObj.Show
 0001:0002CB78       SplashFormImpl.TSplashFormObj.QueryInterface
 0001:0002CBA0       SplashFormImpl.TSplashFormObj._AddRef
 0001:0002CBB4       SplashFormImpl.TSplashFormObj._Release
 0001:0002CBC8       SplashFormImpl.TSplashFormObj.loading
 0001:0002CC48       SplashFormImpl.Finalization
 0001:0002CD14       DialogsImpl..TDialogs
 0001:0002CDD4       DialogsImpl.TDialogs.InputBox
 0001:0002CDE8       DialogsImpl.TDialogs.Ask
 0001:0002CE1C       DialogsImpl.TDialogs.Confirm
 0001:0002CE50       DialogsImpl.TDialogs.ShowError
 0001:0002CE60       DialogsImpl.TDialogs.ShowError
 0001:0002CE90       DialogsImpl.TDialogs.ShowErrorFmt
 0001:0002CEEC       DialogsImpl.TDialogs.ShowInfo
 0001:0002CF54       DialogsImpl.TDialogs.ShowMessage
 0001:0002CFBC       DialogsImpl.TDialogs.ShowMessageFmt
 0001:0002D018       DialogsImpl.TDialogs.Warning
 0001:0002D080       DialogsImpl.TDialogs.Destroy
 0001:0002D0AC       DialogsImpl.Create_DialogObj
 0001:0002D0DC       DialogsImpl.Finalization
 0001:0002D0E4       SysFactoryEx.TObjFactoryEx.Create
 0001:0002D0EC       AxCtrls.Finalization
 0001:0002D14C       UPluginMgr..TPluginLoader
 0001:0002D580       UPluginMgr..TPluginMgr
 0001:0002DA40       UPluginMgr..TEnumerator<FunctionItemIntf.IFunctionItem>
 0001:0002DB78       UPluginMgr..TEnumerable<FunctionItemIntf.IFunctionItem>
 0001:0002DE28       UPluginMgr..TList<FunctionItemIntf.IFunctionItem>.TEnumerator
 0001:0002DFD4       UPluginMgr..TList<FunctionItemIntf.IFunctionItem>
 0001:0002E924       UPluginMgr..TEnumerator<FunctionItemIntf.TFunctionPermission>
 0001:0002EA68       UPluginMgr..TEnumerable<FunctionItemIntf.TFunctionPermission>
 0001:0002ED3C       UPluginMgr..TList<FunctionItemIntf.TFunctionPermission>.TEnumerator
 0001:0002EEF4       UPluginMgr..TList<FunctionItemIntf.TFunctionPermission>
 0001:0002F830       UPluginMgr..TObjectList<FunctionItemIntf.TFunctionPermission>
 0001:0002FA5C       UPluginMgr..TEnumerator<UPluginMgr.TPluginLoader>
 0001:0002FB88       UPluginMgr..TEnumerable<UPluginMgr.TPluginLoader>
 0001:0002FE1C       UPluginMgr..TList<UPluginMgr.TPluginLoader>.TEnumerator
 0001:0002FFBC       UPluginMgr..TList<UPluginMgr.TPluginLoader>
 0001:000308E0       UPluginMgr.TPluginLoader.Create
 0001:00030ABC       UPluginMgr.TPluginLoader.Destroy
 0001:00030B2C       UPluginMgr.TPluginLoader.getFunctionPermissionBykey
 0001:00030C48       UPluginMgr.TPluginLoader.getFunctionPermissionBykey
 0001:00030CAC       UPluginMgr.TPluginLoader.init
 0001:00030CFC       UPluginMgr.TPluginLoader.QueryInterface
 0001:00030D24       UPluginMgr.TPluginLoader.RegisterFunctionItem
 0001:00030D78       UPluginMgr.TPluginLoader._AddRef
 0001:00030D8C       UPluginMgr.TPluginLoader._Release
 0001:00030DA0       UPluginMgr.TPluginMgr.addorsetPlugin
 0001:00030E84       UPluginMgr.TPluginMgr.Create
 0001:00030F7C       UPluginMgr.TPluginMgr.Destroy
 0001:00030FD4       UPluginMgr.TPluginMgr.exec
 0001:0003110C       UPluginMgr.TPluginMgr.findFunctionByGUID
 0001:00031224       UPluginMgr.TPluginMgr.findPluginLoaderByGUID
 0001:0003135C       UPluginMgr.TPluginMgr.getFunctionPermission
 0001:000313C0       UPluginMgr.TPluginMgr.getFunctionPermission
 0001:00031424       UPluginMgr.TPluginMgr.getFunctionPermission
 0001:000314BC       UPluginMgr.TPluginMgr.GetPackageList
 0001:00031720       UPluginMgr.TPluginMgr.Init
 0001:0003191C       UPluginMgr.TPluginMgr.LoadPackage
 0001:00031B9C       UPluginMgr.TPluginMgr.QueryInterface
 0001:00031BC4       UPluginMgr.TPluginMgr.registerFunctionPermission
 0001:00031C98       UPluginMgr.TPluginMgr.registerSubFunctionPermission
 0001:00031D60       UPluginMgr.TPluginMgr.WriteErrFmt
 0001:00031DD0       UPluginMgr.TPluginMgr._AddRef
 0001:00031DE4       UPluginMgr.TPluginMgr._Release
 0001:00031DF8       UPluginMgr.Finalization
 0001:00031E1C       UPluginMgr.TEnumerable<FunctionItemIntf.IFunctionItem>.GetEnumerator
 0001:00031E28       UPluginMgr.TEnumerator<FunctionItemIntf.IFunctionItem>.MoveNext
 0001:00031E34       UPluginMgr.TList<FunctionItemIntf.IFunctionItem>.GetCapacity
 0001:00031E44       UPluginMgr.TList<FunctionItemIntf.IFunctionItem>.SetCapacity
 0001:00031E78       UPluginMgr.TList<FunctionItemIntf.IFunctionItem>.SetCount
 0001:00031ECC       UPluginMgr.TList<FunctionItemIntf.IFunctionItem>.GetItem
 0001:00031F0C       UPluginMgr.TList<FunctionItemIntf.IFunctionItem>.Grow
 0001:00031F48       UPluginMgr.TList<FunctionItemIntf.IFunctionItem>.GrowCheck
 0001:00031F78       UPluginMgr.TList<FunctionItemIntf.IFunctionItem>.DoDelete
 0001:00032040       UPluginMgr.TList<FunctionItemIntf.IFunctionItem>.DoGetEnumerator
 0001:0003204C       UPluginMgr.TList<FunctionItemIntf.IFunctionItem>.Notify
 0001:00032068       UPluginMgr.TList<FunctionItemIntf.IFunctionItem>.Create
 0001:000320E0       UPluginMgr.TList<FunctionItemIntf.IFunctionItem>.Create
 0001:00032174       UPluginMgr.TList<FunctionItemIntf.IFunctionItem>.Create
 0001:00032204       UPluginMgr.TList<FunctionItemIntf.IFunctionItem>.Destroy
 0001:00032238       UPluginMgr.TList<FunctionItemIntf.IFunctionItem>.Add
 0001:00032278       UPluginMgr.TList<FunctionItemIntf.IFunctionItem>.AddRange
 0001:00032294       UPluginMgr.TList<FunctionItemIntf.IFunctionItem>.AddRange
 0001:000322A4       UPluginMgr.TList<FunctionItemIntf.IFunctionItem>.AddRange
 0001:000322B4       UPluginMgr.TList<FunctionItemIntf.IFunctionItem>.Insert
 0001:00032340       UPluginMgr.TList<FunctionItemIntf.IFunctionItem>.InsertRange
 0001:00032420       UPluginMgr.TList<FunctionItemIntf.IFunctionItem>.InsertRange
 0001:000324A4       UPluginMgr.TList<FunctionItemIntf.IFunctionItem>.InsertRange
 0001:00032548       UPluginMgr.TList<FunctionItemIntf.IFunctionItem>.Remove
 0001:0003256C       UPluginMgr.TList<FunctionItemIntf.IFunctionItem>.Delete
 0001:00032578       UPluginMgr.TList<FunctionItemIntf.IFunctionItem>.DeleteRange
 0001:000326AC       UPluginMgr.TList<FunctionItemIntf.IFunctionItem>.Extract
 0001:000326EC       UPluginMgr.TList<FunctionItemIntf.IFunctionItem>.Exchange
 0001:00032758       UPluginMgr.TList<FunctionItemIntf.IFunctionItem>.Move
 0001:00032834       UPluginMgr.TList<FunctionItemIntf.IFunctionItem>.First
 0001:0003284C       UPluginMgr.TList<FunctionItemIntf.IFunctionItem>.Last
 0001:00032868       UPluginMgr.TList<FunctionItemIntf.IFunctionItem>.Clear
 0001:00032884       UPluginMgr.TList<FunctionItemIntf.IFunctionItem>.Contains
 0001:000328A0       UPluginMgr.TList<FunctionItemIntf.IFunctionItem>.IndexOf
 0001:000328E8       UPluginMgr.TList<FunctionItemIntf.IFunctionItem>.LastIndexOf
 0001:00032928       UPluginMgr.TList<FunctionItemIntf.IFunctionItem>.Reverse
 0001:000329A0       UPluginMgr.TList<FunctionItemIntf.IFunctionItem>.Sort
 0001:000329D0       UPluginMgr.TList<FunctionItemIntf.IFunctionItem>.Sort
 0001:00032A00       UPluginMgr.TList<FunctionItemIntf.IFunctionItem>.BinarySearch
 0001:00032A40       UPluginMgr.TList<FunctionItemIntf.IFunctionItem>.BinarySearch
 0001:00032A80       UPluginMgr.TList<FunctionItemIntf.IFunctionItem>.TrimExcess
 0001:00032A90       UPluginMgr.TList<FunctionItemIntf.IFunctionItem>.GetEnumerator
 0001:00032AA4       UPluginMgr.TList<FunctionItemIntf.IFunctionItem>.TEnumerator.GetCurrent
 0001:00032AC0       UPluginMgr.TList<FunctionItemIntf.IFunctionItem>.TEnumerator.DoGetCurrent
 0001:00032AD8       UPluginMgr.TList<FunctionItemIntf.IFunctionItem>.TEnumerator.DoMoveNext
 0001:00032AE4       UPluginMgr.TList<FunctionItemIntf.IFunctionItem>.TEnumerator.Create
 0001:00032B2C       UPluginMgr.TList<FunctionItemIntf.IFunctionItem>.TEnumerator.MoveNext
 0001:00032B4C       UPluginMgr.TEnumerable<FunctionItemIntf.TFunctionPermission>.GetEnumerator
 0001:00032B58       UPluginMgr.TEnumerator<FunctionItemIntf.TFunctionPermission>.MoveNext
 0001:00032B64       UPluginMgr.TList<FunctionItemIntf.TFunctionPermission>.GetCapacity
 0001:00032B74       UPluginMgr.TList<FunctionItemIntf.TFunctionPermission>.SetCapacity
 0001:00032BA8       UPluginMgr.TList<FunctionItemIntf.TFunctionPermission>.SetCount
 0001:00032BFC       UPluginMgr.TList<FunctionItemIntf.TFunctionPermission>.GetItem
 0001:00032C28       UPluginMgr.TList<FunctionItemIntf.TFunctionPermission>.Grow
 0001:00032C64       UPluginMgr.TList<FunctionItemIntf.TFunctionPermission>.GrowCheck
 0001:00032C94       UPluginMgr.TList<FunctionItemIntf.TFunctionPermission>.DoDelete
 0001:00032D1C       UPluginMgr.TList<FunctionItemIntf.TFunctionPermission>.DoGetEnumerator
 0001:00032D28       UPluginMgr.TList<FunctionItemIntf.TFunctionPermission>.Notify
 0001:00032D44       UPluginMgr.TList<FunctionItemIntf.TFunctionPermission>.Create
 0001:00032DBC       UPluginMgr.TList<FunctionItemIntf.TFunctionPermission>.Create
 0001:00032E50       UPluginMgr.TList<FunctionItemIntf.TFunctionPermission>.Create
 0001:00032EE0       UPluginMgr.TList<FunctionItemIntf.TFunctionPermission>.Destroy
 0001:00032F14       UPluginMgr.TList<FunctionItemIntf.TFunctionPermission>.Add
 0001:00032F4C       UPluginMgr.TList<FunctionItemIntf.TFunctionPermission>.AddRange
 0001:00032F68       UPluginMgr.TList<FunctionItemIntf.TFunctionPermission>.AddRange
 0001:00032F78       UPluginMgr.TList<FunctionItemIntf.TFunctionPermission>.AddRange
 0001:00032F88       UPluginMgr.TList<FunctionItemIntf.TFunctionPermission>.Insert
 0001:0003300C       UPluginMgr.TList<FunctionItemIntf.TFunctionPermission>.InsertRange
 0001:000330F8       UPluginMgr.TList<FunctionItemIntf.TFunctionPermission>.InsertRange
 0001:00033170       UPluginMgr.TList<FunctionItemIntf.TFunctionPermission>.InsertRange
 0001:000331E8       UPluginMgr.TList<FunctionItemIntf.TFunctionPermission>.Remove
 0001:0003320C       UPluginMgr.TList<FunctionItemIntf.TFunctionPermission>.Delete
 0001:00033218       UPluginMgr.TList<FunctionItemIntf.TFunctionPermission>.DeleteRange
 0001:0003334C       UPluginMgr.TList<FunctionItemIntf.TFunctionPermission>.Extract
 0001:0003337C       UPluginMgr.TList<FunctionItemIntf.TFunctionPermission>.Exchange
 0001:0003339C       UPluginMgr.TList<FunctionItemIntf.TFunctionPermission>.Move
 0001:00033440       UPluginMgr.TList<FunctionItemIntf.TFunctionPermission>.First
 0001:0003344C       UPluginMgr.TList<FunctionItemIntf.TFunctionPermission>.Last
 0001:0003345C       UPluginMgr.TList<FunctionItemIntf.TFunctionPermission>.Clear
 0001:00033478       UPluginMgr.TList<FunctionItemIntf.TFunctionPermission>.Contains
 0001:00033494       UPluginMgr.TList<FunctionItemIntf.TFunctionPermission>.IndexOf
 0001:000334DC       UPluginMgr.TList<FunctionItemIntf.TFunctionPermission>.LastIndexOf
 0001:0003351C       UPluginMgr.TList<FunctionItemIntf.TFunctionPermission>.Reverse
 0001:0003354C       UPluginMgr.TList<FunctionItemIntf.TFunctionPermission>.Sort
 0001:0003357C       UPluginMgr.TList<FunctionItemIntf.TFunctionPermission>.Sort
 0001:000335AC       UPluginMgr.TList<FunctionItemIntf.TFunctionPermission>.BinarySearch
 0001:000335EC       UPluginMgr.TList<FunctionItemIntf.TFunctionPermission>.BinarySearch
 0001:0003362C       UPluginMgr.TList<FunctionItemIntf.TFunctionPermission>.TrimExcess
 0001:0003363C       UPluginMgr.TList<FunctionItemIntf.TFunctionPermission>.GetEnumerator
 0001:00033650       UPluginMgr.TList<FunctionItemIntf.TFunctionPermission>.TEnumerator.GetCurrent
 0001:00033660       UPluginMgr.TList<FunctionItemIntf.TFunctionPermission>.TEnumerator.DoGetCurrent
 0001:0003366C       UPluginMgr.TList<FunctionItemIntf.TFunctionPermission>.TEnumerator.DoMoveNext
 0001:00033678       UPluginMgr.TList<FunctionItemIntf.TFunctionPermission>.TEnumerator.Create
 0001:000336C0       UPluginMgr.TList<FunctionItemIntf.TFunctionPermission>.TEnumerator.MoveNext
 0001:000336E0       UPluginMgr.TObjectList<FunctionItemIntf.TFunctionPermission>.Notify
 0001:00033710       UPluginMgr.TObjectList<FunctionItemIntf.TFunctionPermission>.Create
 0001:00033754       UPluginMgr.TObjectList<FunctionItemIntf.TFunctionPermission>.Create
 0001:00033798       UPluginMgr.TObjectList<FunctionItemIntf.TFunctionPermission>.Create
 0001:000337DC       UPluginMgr.TEnumerable<UPluginMgr.TPluginLoader>.GetEnumerator
 0001:000337E8       UPluginMgr.TEnumerator<UPluginMgr.TPluginLoader>.MoveNext
 0001:000337F4       UPluginMgr.TList<UPluginMgr.TPluginLoader>.GetCapacity
 0001:00033804       UPluginMgr.TList<UPluginMgr.TPluginLoader>.SetCapacity
 0001:00033838       UPluginMgr.TList<UPluginMgr.TPluginLoader>.SetCount
 0001:0003388C       UPluginMgr.TList<UPluginMgr.TPluginLoader>.GetItem
 0001:000338B8       UPluginMgr.TList<UPluginMgr.TPluginLoader>.Grow
 0001:000338F4       UPluginMgr.TList<UPluginMgr.TPluginLoader>.GrowCheck
 0001:00033924       UPluginMgr.TList<UPluginMgr.TPluginLoader>.DoDelete
 0001:000339AC       UPluginMgr.TList<UPluginMgr.TPluginLoader>.DoGetEnumerator
 0001:000339B8       UPluginMgr.TList<UPluginMgr.TPluginLoader>.Notify
 0001:000339D4       UPluginMgr.TList<UPluginMgr.TPluginLoader>.Create
 0001:00033A4C       UPluginMgr.TList<UPluginMgr.TPluginLoader>.Create
 0001:00033AE0       UPluginMgr.TList<UPluginMgr.TPluginLoader>.Create
 0001:00033B70       UPluginMgr.TList<UPluginMgr.TPluginLoader>.Destroy
 0001:00033BA4       UPluginMgr.TList<UPluginMgr.TPluginLoader>.Add
 0001:00033BDC       UPluginMgr.TList<UPluginMgr.TPluginLoader>.AddRange
 0001:00033BF8       UPluginMgr.TList<UPluginMgr.TPluginLoader>.AddRange
 0001:00033C08       UPluginMgr.TList<UPluginMgr.TPluginLoader>.AddRange
 0001:00033C18       UPluginMgr.TList<UPluginMgr.TPluginLoader>.Insert
 0001:00033C9C       UPluginMgr.TList<UPluginMgr.TPluginLoader>.InsertRange
 0001:00033D88       UPluginMgr.TList<UPluginMgr.TPluginLoader>.InsertRange
 0001:00033E00       UPluginMgr.TList<UPluginMgr.TPluginLoader>.InsertRange
 0001:00033E78       UPluginMgr.TList<UPluginMgr.TPluginLoader>.Remove
 0001:00033E9C       UPluginMgr.TList<UPluginMgr.TPluginLoader>.Delete
 0001:00033EA8       UPluginMgr.TList<UPluginMgr.TPluginLoader>.DeleteRange
 0001:00033FDC       UPluginMgr.TList<UPluginMgr.TPluginLoader>.Extract
 0001:0003400C       UPluginMgr.TList<UPluginMgr.TPluginLoader>.Exchange
 0001:0003402C       UPluginMgr.TList<UPluginMgr.TPluginLoader>.Move
 0001:000340D0       UPluginMgr.TList<UPluginMgr.TPluginLoader>.First
 0001:000340DC       UPluginMgr.TList<UPluginMgr.TPluginLoader>.Last
 0001:000340EC       UPluginMgr.TList<UPluginMgr.TPluginLoader>.Clear
 0001:00034108       UPluginMgr.TList<UPluginMgr.TPluginLoader>.Contains
 0001:00034124       UPluginMgr.TList<UPluginMgr.TPluginLoader>.IndexOf
 0001:0003416C       UPluginMgr.TList<UPluginMgr.TPluginLoader>.LastIndexOf
 0001:000341AC       UPluginMgr.TList<UPluginMgr.TPluginLoader>.Reverse
 0001:000341DC       UPluginMgr.TList<UPluginMgr.TPluginLoader>.Sort
 0001:0003420C       UPluginMgr.TList<UPluginMgr.TPluginLoader>.Sort
 0001:0003423C       UPluginMgr.TList<UPluginMgr.TPluginLoader>.BinarySearch
 0001:0003427C       UPluginMgr.TList<UPluginMgr.TPluginLoader>.BinarySearch
 0001:000342BC       UPluginMgr.TList<UPluginMgr.TPluginLoader>.TrimExcess
 0001:000342CC       UPluginMgr.TList<UPluginMgr.TPluginLoader>.GetEnumerator
 0001:000342E0       UPluginMgr.TList<UPluginMgr.TPluginLoader>.TEnumerator.GetCurrent
 0001:000342F0       UPluginMgr.TList<UPluginMgr.TPluginLoader>.TEnumerator.DoGetCurrent
 0001:000342FC       UPluginMgr.TList<UPluginMgr.TPluginLoader>.TEnumerator.DoMoveNext
 0001:00034308       UPluginMgr.TList<UPluginMgr.TPluginLoader>.TEnumerator.Create
 0001:00034350       UPluginMgr.TList<UPluginMgr.TPluginLoader>.TEnumerator.MoveNext
 0001:00034370       UPluginMgr.TComparer<FunctionItemIntf.IFunctionItem>.Default
 0001:00034394       UPluginMgr.TComparer<FunctionItemIntf.IFunctionItem>.Construct
 0001:000343C0       UPluginMgr.TArray.Sort<FunctionItemIntf.IFunctionItem>
 0001:00034428       UPluginMgr.TArray.BinarySearch<FunctionItemIntf.IFunctionItem>
 0001:000344E0       UPluginMgr.TComparer<FunctionItemIntf.TFunctionPermission>.Default
 0001:00034504       UPluginMgr.TComparer<FunctionItemIntf.TFunctionPermission>.Construct
 0001:00034530       UPluginMgr.TArray.Sort<FunctionItemIntf.TFunctionPermission>
 0001:00034598       UPluginMgr.TArray.BinarySearch<FunctionItemIntf.TFunctionPermission>
 0001:00034650       UPluginMgr.TComparer<UPluginMgr.TPluginLoader>.Default
 0001:00034674       UPluginMgr.TComparer<UPluginMgr.TPluginLoader>.Construct
 0001:000346A0       UPluginMgr.TArray.Sort<UPluginMgr.TPluginLoader>
 0001:00034708       UPluginMgr.TArray.BinarySearch<UPluginMgr.TPluginLoader>
 0001:000347C0       UPluginMgr.TDelegatedComparer<FunctionItemIntf.IFunctionItem>.Create
 0001:00034800       UPluginMgr.TDelegatedComparer<FunctionItemIntf.IFunctionItem>.Compare
 0001:00034810       UPluginMgr.TArray.QuickSort<FunctionItemIntf.IFunctionItem>
 0001:00034938       UPluginMgr.TDelegatedComparer<FunctionItemIntf.TFunctionPermission>.Create
 0001:00034978       UPluginMgr.TDelegatedComparer<FunctionItemIntf.TFunctionPermission>.Compare
 0001:00034988       UPluginMgr.TArray.QuickSort<FunctionItemIntf.TFunctionPermission>
 0001:00034A58       UPluginMgr.TDelegatedComparer<UPluginMgr.TPluginLoader>.Create
 0001:00034A98       UPluginMgr.TDelegatedComparer<UPluginMgr.TPluginLoader>.Compare
 0001:00034AA8       UPluginMgr.TArray.QuickSort<UPluginMgr.TPluginLoader>
 0001:00034C2C       UPluginMgr..TComparer<FunctionItemIntf.IFunctionItem>
 0001:00034D8C       UPluginMgr.TComparer<FunctionItemIntf.IFunctionItem>.Compare
 0001:00034EC8       UPluginMgr..TComparer<FunctionItemIntf.TFunctionPermission>
 0001:00035030       UPluginMgr.TComparer<FunctionItemIntf.TFunctionPermission>.Compare
 0001:00035164       UPluginMgr..TComparer<UPluginMgr.TPluginLoader>
 0001:000352C0       UPluginMgr.TComparer<UPluginMgr.TPluginLoader>.Compare
 0001:00035338       UPluginMgr..TDelegatedComparer<FunctionItemIntf.IFunctionItem>
 0001:000354DC       UPluginMgr..TDelegatedComparer<FunctionItemIntf.TFunctionPermission>
 0001:0003568C       UPluginMgr..TDelegatedComparer<UPluginMgr.TPluginLoader>
 0001:00035824       Base64EncdDecd.EncodePacket
 0001:000358A8       Base64EncdDecd.DecodePacket
 0001:00035930       Base64EncdDecd.EncodeStream
 0001:00035A08       Base64EncdDecd.SkipWhite
 0001:00035A64       Base64EncdDecd.ReadInput
 0001:00035AFC       Base64EncdDecd.DecodeStream
 0001:00035B8C       Base64EncdDecd.EncodeString
 0001:00035C28       Base64EncdDecd.DecodeString
 0001:00035D64       EncdDecdImpl..TEncdDecdObj
 0001:00035DFC       EncdDecdImpl.CryptAcquireContext
 0001:00035E04       EncdDecdImpl.CryptCreateHash
 0001:00035E0C       EncdDecdImpl.CryptHashData
 0001:00035E14       EncdDecdImpl.CryptGetHashParam
 0001:00035E1C       EncdDecdImpl.CryptDestroyHash
 0001:00035E24       EncdDecdImpl.CryptReleaseContext
 0001:00035E2C       EncdDecdImpl.TEncdDecdObj.Encrypt
 0001:00035FA0       EncdDecdImpl.TEncdDecdObj.Decrypt
 0001:0003616C       EncdDecdImpl.TEncdDecdObj.MD5
 0001:000362F8       EncdDecdImpl.Create_EncdDecdObj
 0001:00036328       EncdDecdImpl.TEncdDecdObj.Base64DecodeStream
 0001:00036338       EncdDecdImpl.TEncdDecdObj.Base64DecodeString
 0001:00036350       EncdDecdImpl.TEncdDecdObj.Base64EncodeStream
 0001:00036360       EncdDecdImpl.TEncdDecdObj.Base64EncodeString
 0001:00036378       EncdDecdImpl.Finalization
 0001:00036380       ProgressForm..Tfrm_ProgressForm
 0001:00036614       ProgressForm.Tfrm_ProgressForm.FormCreate
 0001:000366B4       ProgressFormImpl..TProgressFormObj
 0001:000367D8       ProgressFormImpl.TProgressFormObj.Create
 0001:00036800       ProgressFormImpl.TProgressFormObj.CreateForm
 0001:00036830       ProgressFormImpl.TProgressFormObj.Destroy
 0001:00036868       ProgressFormImpl.TProgressFormObj.Hide
 0001:0003688C       ProgressFormImpl.TProgressFormObj.progress
 0001:000368D4       ProgressFormImpl.TProgressFormObj.ShowMsg
 0001:00036904       ProgressFormImpl.Create_ProgressFormObj
 0001:00036934       ProgressFormImpl.Finalization
 0001:00036A48       SysInfoImpl..TSysInfoObj
 0001:00036DC4       SysInfoImpl..TEnumerator<TPair<System.string,System.Integer>>
 0001:00036F08       SysInfoImpl..TEnumerable<TPair<System.string,System.Integer>>
 0001:000371FC       SysInfoImpl..TEnumerator<System.string>
 0001:00037314       SysInfoImpl..TEnumerable<System.string>
 0001:00037400       SysInfoImpl..TDictionary<System.string,System.Integer>.TKeyEnumerator
 0001:000375C8       SysInfoImpl..TDictionary<System.string,System.Integer>.TKeyCollection
 0001:0003777C       SysInfoImpl..TEnumerator<System.Integer>
 0001:0003782C       SysInfoImpl..TEnumerable<System.Integer>
 0001:000378E0       SysInfoImpl..TDictionary<System.string,System.Integer>.TValueEnumerator
 0001:00037AAC       SysInfoImpl..TDictionary<System.string,System.Integer>.TValueCollection
 0001:00037C64       SysInfoImpl..TDictionary<System.string,System.Integer>.TPairEnumerator
 0001:00037E2C       SysInfoImpl..TDictionary<System.string,System.Integer>
 0001:000384D8       SysInfoImpl.TSysInfoObj.AppPath
 0001:00038524       SysInfoImpl.TSysInfoObj.Create
 0001:00038560       SysInfoImpl.TSysInfoObj.Destroy
 0001:0003859C       SysInfoImpl.TSysInfoObj.ErrPath
 0001:0003861C       SysInfoImpl.TSysInfoObj.getServerSecretKey
 0001:00038634       SysInfoImpl.TSysInfoObj.getServerURL
 0001:0003864C       SysInfoImpl.TSysInfoObj.setCardManage
 0001:00038650       SysInfoImpl.TSysInfoObj.setCurBillLength
 0001:00038654       SysInfoImpl.TSysInfoObj.setLocalHostAddress
 0001:000386A0       SysInfoImpl.TSysInfoObj.setLocalHostName
 0001:000386EC       SysInfoImpl.TSysInfoObj.setLoginUserINfo
 0001:000386F0       SysInfoImpl.TSysInfoObj.getCardManage
 0001:000386F4       SysInfoImpl.TSysInfoObj.getCurBillLength
 0001:000386F8       SysInfoImpl.TSysInfoObj.getLocalHostAddress
 0001:00038710       SysInfoImpl.TSysInfoObj.getLocalHostName
 0001:00038728       SysInfoImpl.TSysInfoObj.getLoginUserInfo
 0001:0003872C       SysInfoImpl.TSysInfoObj.SetServerSecretKey
 0001:00038778       SysInfoImpl.TSysInfoObj.SetServerURL
 0001:000387C4       SysInfoImpl.CreateSysInfoObj
 0001:000387F4       SysInfoImpl.Finalization
 0001:000387FC       SysInfoImpl.TPair<System.string,System.Integer>.Create
 0001:0003881C       SysInfoImpl.TEnumerable<TPair<System.string,System.Integer>>.GetEnumerator
 0001:00038828       SysInfoImpl.TEnumerator<TPair<System.string,System.Integer>>.MoveNext
 0001:00038834       SysInfoImpl.TDictionary<System.string,System.Integer>.SetCapacity
 0001:00038878       SysInfoImpl.TDictionary<System.string,System.Integer>.Rehash
 0001:00038960       SysInfoImpl.TDictionary<System.string,System.Integer>.Grow
 0001:00038988       SysInfoImpl.TDictionary<System.string,System.Integer>.GetBucketIndex
 0001:00038A0C       SysInfoImpl.TDictionary<System.string,System.Integer>.Hash
 0001:00038A30       SysInfoImpl.TDictionary<System.string,System.Integer>.RehashAdd
 0001:00038A80       SysInfoImpl.TDictionary<System.string,System.Integer>.DoAdd
 0001:00038AD0       SysInfoImpl.TDictionary<System.string,System.Integer>.DoSetValue
 0001:00038B0C       SysInfoImpl.TDictionary<System.string,System.Integer>.DoRemove
 0001:00038BFC       SysInfoImpl.TDictionary<System.string,System.Integer>.DoGetEnumerator
 0001:00038C08       SysInfoImpl.TDictionary<System.string,System.Integer>.KeyNotify
 0001:00038C24       SysInfoImpl.TDictionary<System.string,System.Integer>.ValueNotify
 0001:00038C40       SysInfoImpl.TDictionary<System.string,System.Integer>.Create
 0001:00038C7C       SysInfoImpl.TDictionary<System.string,System.Integer>.Create
 0001:00038CB8       SysInfoImpl.TDictionary<System.string,System.Integer>.Create
 0001:00038D70       SysInfoImpl.TDictionary<System.string,System.Integer>.Create
 0001:00038E5C       SysInfoImpl.TDictionary<System.string,System.Integer>.Create
 0001:00038F4C       SysInfoImpl.TDictionary<System.string,System.Integer>.Destroy
 0001:00038F8C       SysInfoImpl.TDictionary<System.string,System.Integer>.Add
 0001:00038FF8       SysInfoImpl.TDictionary<System.string,System.Integer>.Remove
 0001:0003901C       SysInfoImpl.TDictionary<System.string,System.Integer>.ExtractPair
 0001:00039068       SysInfoImpl.TDictionary<System.string,System.Integer>.Clear
 0001:00039138       SysInfoImpl.TDictionary<System.string,System.Integer>.TrimExcess
 0001:00039148       SysInfoImpl.TDictionary<System.string,System.Integer>.TryGetValue
 0001:00039194       SysInfoImpl.TDictionary<System.string,System.Integer>.AddOrSetValue
 0001:000391F8       SysInfoImpl.TDictionary<System.string,System.Integer>.ContainsKey
 0001:00039220       SysInfoImpl.TDictionary<System.string,System.Integer>.ContainsValue
 0001:000392B4       SysInfoImpl.TDictionary<System.string,System.Integer>.GetKeys
 0001:000392D8       SysInfoImpl.TDictionary<System.string,System.Integer>.GetValues
 0001:000392FC       SysInfoImpl.TDictionary<System.string,System.Integer>.GetEnumerator
 0001:00039310       SysInfoImpl.TEnumerable<System.string>.GetEnumerator
 0001:0003931C       SysInfoImpl.TEnumerator<System.string>.MoveNext
 0001:00039328       SysInfoImpl.TDictionary<System.string,System.Integer>.TKeyCollection.GetCount
 0001:00039330       SysInfoImpl.TDictionary<System.string,System.Integer>.TKeyCollection.DoGetEnumerator
 0001:0003933C       SysInfoImpl.TDictionary<System.string,System.Integer>.TKeyCollection.Create
 0001:0003937C       SysInfoImpl.TDictionary<System.string,System.Integer>.TKeyCollection.GetEnumerator
 0001:00039390       SysInfoImpl.TDictionary<System.string,System.Integer>.TKeyEnumerator.GetCurrent
 0001:000393B4       SysInfoImpl.TDictionary<System.string,System.Integer>.TKeyEnumerator.DoGetCurrent
 0001:000393CC       SysInfoImpl.TDictionary<System.string,System.Integer>.TKeyEnumerator.DoMoveNext
 0001:000393D8       SysInfoImpl.TDictionary<System.string,System.Integer>.TKeyEnumerator.Create
 0001:00039420       SysInfoImpl.TDictionary<System.string,System.Integer>.TKeyEnumerator.MoveNext
 0001:0003945C       SysInfoImpl.TEnumerable<System.Integer>.GetEnumerator
 0001:00039468       SysInfoImpl.TEnumerator<System.Integer>.MoveNext
 0001:00039474       SysInfoImpl.TDictionary<System.string,System.Integer>.TValueCollection.GetCount
 0001:0003947C       SysInfoImpl.TDictionary<System.string,System.Integer>.TValueCollection.DoGetEnumerator
 0001:00039488       SysInfoImpl.TDictionary<System.string,System.Integer>.TValueCollection.Create
 0001:000394C8       SysInfoImpl.TDictionary<System.string,System.Integer>.TValueCollection.GetEnumerator
 0001:000394DC       SysInfoImpl.TDictionary<System.string,System.Integer>.TValueEnumerator.GetCurrent
 0001:000394F0       SysInfoImpl.TDictionary<System.string,System.Integer>.TValueEnumerator.DoGetCurrent
 0001:000394FC       SysInfoImpl.TDictionary<System.string,System.Integer>.TValueEnumerator.DoMoveNext
 0001:00039508       SysInfoImpl.TDictionary<System.string,System.Integer>.TValueEnumerator.Create
 0001:00039550       SysInfoImpl.TDictionary<System.string,System.Integer>.TValueEnumerator.MoveNext
 0001:0003958C       SysInfoImpl.TDictionary<System.string,System.Integer>.TPairEnumerator.GetCurrent
 0001:000395C4       SysInfoImpl.TDictionary<System.string,System.Integer>.TPairEnumerator.DoGetCurrent
 0001:000395DC       SysInfoImpl.TDictionary<System.string,System.Integer>.TPairEnumerator.DoMoveNext
 0001:000395E8       SysInfoImpl.TDictionary<System.string,System.Integer>.TPairEnumerator.Create
 0001:00039630       SysInfoImpl.TDictionary<System.string,System.Integer>.TPairEnumerator.MoveNext
 0001:0003966C       SysInfoImpl.TEqualityComparer<System.string>.Default
 0001:00039690       SysInfoImpl.TEqualityComparer<System.Integer>.Default
 0001:000396B4       RunOnce.CreateMapFile
 0001:000397A8       RunOnce.FreeMapFile
 0001:000397C4       RunOnce.Finalization
 0001:000397D8       NvBUS.Finalization
 0002:00000000       System.System
 0002:00000008       Forms.Forms
 0002:00000010       UxTheme.UxTheme
 0002:00000018       Windows.Windows
 0002:00000030       SyncObjs.SyncObjs
 0002:00000038       Classes.TThread.Create@
 0002:00000040       Classes.Classes
 0002:00000048       TypInfo.TypInfo
 0002:00000050       SysUtils.TLanguages.Create@
 0002:00000058       SysUtils.TEncoding.Create@
 0002:00000060       SysUtils.Exception.Create@
 0002:00000068       SysUtils.SysUtils
 0002:00000070       Variants.Variants
 0002:00000078       VarUtils.VarUtils
 0002:00000080       TimeSpan.TTimeSpan.Create@
 0002:00000088       HelpIntfs.HelpIntfs
 0002:00000090       MultiMon.MultiMon
 0002:00000098       ActnList.ActnList
 0002:000000A0       Graphics.Graphics
 0002:000000A8       Registry.Registry
 0002:000000B0       IniFiles.IniFiles
 0002:000000B8       IOUtils.TPath.Create@
 0002:000000C0       IOUtils.IOUtils
 0002:000000C8       Themes.Themes
 0002:000000D0       Controls.Controls
 0002:000000D8       Menus.Menus
 0002:000000E0       Dialogs.Dialogs
 0002:000000E8       ComCtrls.ComCtrls
 0002:000000F0       GraphUtil.GraphUtil
 0002:000000F8       ExtCtrls.ExtCtrls
 0002:00000100       Printers.Printers
 0002:00000108       Clipbrd.Clipbrd
 0002:00000110       FlatSB.FlatSB
 0002:00000118       DBClient.DBClient
 0002:00000120       SqlTimSt.SqlTimSt
 0002:00000128       DB.DB
 0002:00000130       WideStrings.WideStrings
 0002:00000138       FMTBcd.FMTBcd
 0002:00000140       ComObj.ComObj
 0002:00000148       DSIntf.DSIntf
 0002:00000150       Provider.Provider
 0002:00000158       AppEvnts.AppEvnts
 0002:00000160       pngimage.pngimage
 0002:00000168       Rtti.Rtti
 0002:00000170       ceflib.ceflib
 0002:00000188       cefvcl.cefvcl
 0002:00000194       GIFImg.GIFImg
 0002:0000019C       jpeg.jpeg
 0002:000001A4       Services.Services
 0002:000001AC       PubFn.PubFn
 0002:000001B4       GdiPlus.GdiPlus
 0002:000001BC       CheckLst.CheckLst
 0002:000001C4       WinSkinData.WinSkinData
 0002:000001CC       WinSkinIni.WinSkinIni
 0002:000001D4       ImgUtil.ImgUtil
 0002:000001DC       Buttons.Buttons
 0002:000001E4       Tabs.Tabs
 0002:000001EC       WinSkinDlg.WinSkinDlg
 0002:000001F4       WinSkinForm.WinSkinForm
 0002:000001FC       superobject.superobject
 0002:00000204       SysFactoryMgr.SysFactoryMgr
 0002:0000020C       CardManage.CardManage
 0002:00000214       SystemInstance.SystemInstance
 0002:0000021C       SysSvc.SysSvc
 0002:00000228       UFrmMain.UFrmMain
 0002:000009FC       SplashFormImpl.SplashFormImpl
 0002:00000A08       DialogsImpl.DialogsImpl
 0002:00000A40       AxCtrls.AxCtrls
 0002:00000A48       UPluginMgr.UPluginMgr
 0002:00000A54       EncdDecdImpl.EncdDecdImpl
 0002:00000A8C       ProgressFormImpl.ProgressFormImpl
 0002:00000AC4       SysInfoImpl.SysInfoImpl
 0002:00000AFC       RunOnce.RunOnce
 0002:00000B10       NvBUS.NvBUS
 0003:00000000       SysInit.TlsIndex
 0003:00000004       SysInit.PtrToNil
 0003:00000008       SysInit.Module
 0003:00000024       Windows.Win32MajorVersion
 0003:00000028       Windows.Win32MinorVersion
 0003:0000002C       Windows.Win32Platform
 0003:00000030       ceflib.CefLibrary
 0003:00000034       ceflib.CefCache
 0003:00000038       ceflib.CefUserAgent
 0003:0000003C       ceflib.CefProductVersion
 0003:00000040       ceflib.CefLocale
 0003:00000044       ceflib.CefLogFile
 0003:00000048       ceflib.CefLogSeverity
 0003:0000004C       ceflib.CefReleaseDCheckEnabled
 0003:00000050       ceflib.CefGraphicsImplementation
 0003:00000054       ceflib.CefExtraPluginPaths
 0003:00000058       ceflib.CefLocalStorageQuota
 0003:0000005C       ceflib.CefSessionStorageQuota
 0003:00000060       ceflib.CefJavaScriptFlags
 0003:00000064       ceflib.CefResourcesDirPath
 0003:00000068       ceflib.CefLocalesDirPath
 0003:0000006C       ceflib.CefPackLoadingDisabled
 0003:00000070       ceflib.CefUncaughtExceptionStackSize
 0003:00000074       ceflib.CefContextSafetyImplementation
 0003:00000078       ceflib.CefGetProxyForUrl
 0003:0000007C       ceflib.CefGetDataResource
 0003:00000080       ceflib.CefGetLocalizedString
 0003:00000084       ceflib.CefRegisterCustomSchemes
 0003:00000088       ceflib.CefAutoDetectProxySettings
 0003:0000008C       ceflib.LibHandle
 0003:00000090       cefvcl.CefInstances
 0003:00000094       cefvcl.CefTimer
 0003:00000098       cefvcl.looping
 0003:0000009C       ceffilescheme.s
 0003:000000CC       Base64EncdDecd.EncodeTable
 0003:0000010C       Base64EncdDecd.DecodeTable
 0004:00000000       SysInit.HInstance
 0004:00000004       Windows..2
 0004:00000008       Windows.HtmlHelpModule
 0004:0000000C       ceflib..37
 0004:00000010       ceflib.cef_string_wide_set
 0004:00000014       ceflib.cef_string_utf8_set
 0004:00000018       ceflib.cef_string_utf16_set
 0004:0000001C       ceflib.cef_string_set
 0004:00000020       ceflib.cef_string_wide_clear
 0004:00000024       ceflib.cef_string_utf8_clear
 0004:00000028       ceflib.cef_string_utf16_clear
 0004:0000002C       ceflib.cef_string_clear
 0004:00000030       ceflib.cef_string_wide_cmp
 0004:00000034       ceflib.cef_string_utf8_cmp
 0004:00000038       ceflib.cef_string_utf16_cmp
 0004:0000003C       ceflib.cef_string_wide_to_utf8
 0004:00000040       ceflib.cef_string_utf8_to_wide
 0004:00000044       ceflib.cef_string_wide_to_utf16
 0004:00000048       ceflib.cef_string_utf16_to_wide
 0004:0000004C       ceflib.cef_string_utf8_to_utf16
 0004:00000050       ceflib.cef_string_utf16_to_utf8
 0004:00000054       ceflib.cef_string_to_utf8
 0004:00000058       ceflib.cef_string_from_utf8
 0004:0000005C       ceflib.cef_string_to_utf16
 0004:00000060       ceflib.cef_string_from_utf16
 0004:00000064       ceflib.cef_string_to_wide
 0004:00000068       ceflib.cef_string_from_wide
 0004:0000006C       ceflib.cef_string_ascii_to_wide
 0004:00000070       ceflib.cef_string_ascii_to_utf16
 0004:00000074       ceflib.cef_string_from_ascii
 0004:00000078       ceflib.cef_string_userfree_wide_alloc
 0004:0000007C       ceflib.cef_string_userfree_utf8_alloc
 0004:00000080       ceflib.cef_string_userfree_utf16_alloc
 0004:00000084       ceflib.cef_string_userfree_alloc
 0004:00000088       ceflib.cef_string_userfree_wide_free
 0004:0000008C       ceflib.cef_string_userfree_utf8_free
 0004:00000090       ceflib.cef_string_userfree_utf16_free
 0004:00000094       ceflib.cef_string_userfree_free
 0004:00000098       ceflib.cef_browser_create
 0004:0000009C       ceflib.cef_browser_create_sync
 0004:000000A0       ceflib.cef_do_message_loop_work
 0004:000000A4       ceflib.cef_run_message_loop
 0004:000000A8       ceflib.cef_quit_message_loop
 0004:000000AC       ceflib.cef_set_osmodal_loop
 0004:000000B0       ceflib.cef_initialize
 0004:000000B4       ceflib.cef_shutdown
 0004:000000B8       ceflib.cef_string_map_alloc
 0004:000000BC       ceflib.cef_string_map_size
 0004:000000C0       ceflib.cef_string_map_find
 0004:000000C4       ceflib.cef_string_map_key
 0004:000000C8       ceflib.cef_string_map_value
 0004:000000CC       ceflib.cef_string_map_append
 0004:000000D0       ceflib.cef_string_map_clear
 0004:000000D4       ceflib.cef_string_map_free
 0004:000000D8       ceflib.cef_string_list_alloc
 0004:000000DC       ceflib.cef_string_list_size
 0004:000000E0       ceflib.cef_string_list_value
 0004:000000E4       ceflib.cef_string_list_append
 0004:000000E8       ceflib.cef_string_list_clear
 0004:000000EC       ceflib.cef_string_list_free
 0004:000000F0       ceflib.cef_string_list_copy
 0004:000000F4       ceflib.cef_register_extension
 0004:000000F8       ceflib.cef_register_scheme_handler_factory
 0004:000000FC       ceflib.cef_clear_scheme_handler_factories
 0004:00000100       ceflib.cef_add_cross_origin_whitelist_entry
 0004:00000104       ceflib.cef_remove_cross_origin_whitelist_entry
 0004:00000108       ceflib.cef_clear_cross_origin_whitelist
 0004:0000010C       ceflib.cef_currently_on
 0004:00000110       ceflib.cef_post_task
 0004:00000114       ceflib.cef_post_delayed_task
 0004:00000118       ceflib.cef_parse_url
 0004:0000011C       ceflib.cef_create_url
 0004:00000120       ceflib.cef_request_create
 0004:00000124       ceflib.cef_post_data_create
 0004:00000128       ceflib.cef_post_data_element_create
 0004:0000012C       ceflib.cef_stream_reader_create_for_file
 0004:00000130       ceflib.cef_stream_reader_create_for_data
 0004:00000134       ceflib.cef_stream_reader_create_for_handler
 0004:00000138       ceflib.cef_stream_writer_create_for_file
 0004:0000013C       ceflib.cef_stream_writer_create_for_handler
 0004:00000140       ceflib.cef_v8context_get_current_context
 0004:00000144       ceflib.cef_v8context_get_entered_context
 0004:00000148       ceflib.cef_v8context_in_context
 0004:0000014C       ceflib.cef_v8value_create_undefined
 0004:00000150       ceflib.cef_v8value_create_null
 0004:00000154       ceflib.cef_v8value_create_bool
 0004:00000158       ceflib.cef_v8value_create_int
 0004:0000015C       ceflib.cef_v8value_create_uint
 0004:00000160       ceflib.cef_v8value_create_double
 0004:00000164       ceflib.cef_v8value_create_date
 0004:00000168       ceflib.cef_v8value_create_string
 0004:0000016C       ceflib.cef_v8value_create_object
 0004:00000170       ceflib.cef_v8value_create_array
 0004:00000174       ceflib.cef_v8value_create_function
 0004:00000178       ceflib.cef_v8stack_trace_get_current
 0004:0000017C       ceflib.cef_web_urlrequest_create
 0004:00000180       ceflib.cef_xml_reader_create
 0004:00000184       ceflib.cef_zip_reader_create
 0004:00000188       ceflib.cef_string_multimap_alloc
 0004:0000018C       ceflib.cef_string_multimap_size
 0004:00000190       ceflib.cef_string_multimap_find_count
 0004:00000194       ceflib.cef_string_multimap_enumerate
 0004:00000198       ceflib.cef_string_multimap_key
 0004:0000019C       ceflib.cef_string_multimap_value
 0004:000001A0       ceflib.cef_string_multimap_append
 0004:000001A4       ceflib.cef_string_multimap_clear
 0004:000001A8       ceflib.cef_string_multimap_free
 0004:000001AC       ceflib.cef_build_revision
 0004:000001B0       ceflib.cef_cookie_manager_get_global_manager
 0004:000001B4       ceflib.cef_cookie_manager_create_manager
 0004:000001B8       ceflib.cef_get_web_plugin_count
 0004:000001BC       ceflib.cef_get_web_plugin_info
 0004:000001C0       ceflib.cef_get_web_plugin_info_byname
 0004:000001C4       ceflib.cef_get_geolocation
 0004:000001C8       cefvcl..4
 0004:000001CC       SysSvc..2
 0004:000001D0       UFrmException.frmException
 0004:000001D4       UFrmMain.frmMain
 0004:000001D8       UFrmMain..01
 0004:000001DC       UFrmMain.$life
 0004:000001E0       SplashFormImpl..2
 0004:000001E4       DialogsImpl..2
 0004:000001E8       UPluginMgr.PluginMgr
 0004:000001EC       UPluginMgr..6
 0004:000001F0       EncdDecdImpl..2
 0004:000001F4       ProgressFormImpl..2
 0004:000001F8       SysInfoImpl..2
 0004:000001FC       RunOnce..1
 0004:00000200       RunOnce.hMapFile
 0004:00000204       RunOnce.PSMem


Line numbers for ceflib(ceflib.pas) segment .text

  5358 0001:00007D94  5359 0001:00007DA9  5360 0001:00007DB2  5361 0001:00007DD5
  5362 0001:00007DFE  5365 0001:00007E1C  5366 0001:00007E25  5367 0001:00007E2F
  5370 0001:00007E34  5371 0001:00007E3D  5372 0001:00007E47  5376 0001:00007E4C
  5377 0001:00007E4F  5378 0001:00007E58  5379 0001:00007E62  5384 0001:00007E64
  5388 0001:00007E6C  5405 0001:00008024  5406 0001:0000802B  5407 0001:0000803C
  5411 0001:00008040  5412 0001:00008055  5413 0001:00008058  5414 0001:00008063
  5415 0001:00008067  5416 0001:00008072  5434 0001:00008284  5435 0001:0000828B
  5436 0001:000082A4  5440 0001:000082A8  5441 0001:000082BD  5442 0001:000082C0
  5443 0001:000082C6  5444 0001:000082CC  5445 0001:000082D2  5446 0001:000082DD
  5447 0001:000082E1  5462 0001:000084AC  5463 0001:000084B0  5464 0001:000084C2
  5468 0001:000084C8  5469 0001:000084DD  5470 0001:000084E0  5471 0001:000084EB
  5472 0001:000084F9  5473 0001:00008503  5555 0001:00008520  5556 0001:00008523
  5557 0001:0000853A  5963 0001:0000853C  5964 0001:00008542  5965 0001:0000854A
  5966 0001:00008552  5967 0001:0000855A  5968 0001:00008562  5969 0001:0000856A
  5970 0001:00008572  5971 0001:0000857A  5975 0001:0000857C  5976 0001:00008581
  5977 0001:00008588  5978 0001:0000858F  5979 0001:00008596  5980 0001:0000859D
  5981 0001:000085A4  5982 0001:000085AB  5983 0001:000085B2  5988 0001:000085B4
  5989 0001:000085BD  5990 0001:000085C7  5991 0001:000085D6  5992 0001:000085E2
  5997 0001:000085EC  5998 0001:000085F5  5999 0001:00008603  6000 0001:00008612
  6001 0001:0000861C  6055 0001:00008624  6056 0001:00008627  6057 0001:00008635
  6060 0001:0000863C  6061 0001:0000863F  6062 0001:0000864D  6065 0001:00008654
  6066 0001:00008657  6067 0001:00008662  6072 0001:00008668  6073 0001:0000867C
  6074 0001:00008686  6075 0001:000086A2  6078 0001:000086C8  6079 0001:000086DC
  6080 0001:000086E6  6081 0001:00008702  6084 0001:00008728  6085 0001:0000873C
  6086 0001:00008746  6087 0001:00008762  6090 0001:00008788  6091 0001:0000879C
  6092 0001:000087A6  6093 0001:000087C2  6096 0001:000087E8  6097 0001:000087FC
  6098 0001:00008806  6099 0001:00008822  6102 0001:00008848  6103 0001:0000885C
  6104 0001:00008866  6105 0001:00008882  6108 0001:000088A8  6109 0001:000088BC
  6110 0001:000088C6  6111 0001:000088E2  6120 0001:00008908  6121 0001:0000891C
  6122 0001:00008926  6123 0001:00008942  6126 0001:00008968  6127 0001:0000897C
  6128 0001:00008986  6129 0001:000089A2  6132 0001:000089C8  6133 0001:000089DC
  6134 0001:000089E6  6135 0001:00008A02  6138 0001:00008A28  6139 0001:00008A3C
  6140 0001:00008A46  6141 0001:00008A62  6144 0001:00008A88  6145 0001:00008A9C
  6146 0001:00008AA6  6147 0001:00008AC2  6150 0001:00008AE8  6151 0001:00008AFC
  6152 0001:00008B06  6153 0001:00008B22  6156 0001:00008B48  6157 0001:00008B5C
  6158 0001:00008B66  6159 0001:00008B82  6162 0001:00008BA8  6163 0001:00008BBC
  6164 0001:00008BC6  6165 0001:00008BE2  6172 0001:00008C08  6173 0001:00008C20
  6174 0001:00008C2A  6176 0001:00008C6C  6180 0001:00008CA0  6181 0001:00008CB6
  6182 0001:00008CC0  6183 0001:00008CEE  6202 0001:00008D1C  6203 0001:00008D38
  6204 0001:00008D42  6205 0001:00008D54  6206 0001:00008D5E  6214 0001:00008D90
  6215 0001:00008D9A  6216 0001:00008DB1  6217 0001:00008DB9  6220 0001:00008DF0
  6221 0001:00008E04  6222 0001:00008E0E  6223 0001:00008E28  6226 0001:00008E4C
  6227 0001:00008E60  6228 0001:00008E6A  6229 0001:00008E84  6232 0001:00008EA8
  6233 0001:00008EBC  6234 0001:00008EC6  6235 0001:00008EE5  6238 0001:00008F0C
  6240 0001:00008F20  6241 0001:00008F2A  6242 0001:00008F49  6249 0001:00008F70
  6250 0001:00008F86  6251 0001:00008F90  6252 0001:00008FBF  6256 0001:00008FEC
  6257 0001:00009002  6258 0001:0000900C  6259 0001:0000903F  6266 0001:0000906C
  6267 0001:00009084  6268 0001:0000908F  6269 0001:00009099  6271 0001:000090E4
  6272 0001:000090E8  6273 0001:000090F3  6302 0001:00009130  6303 0001:00009148
  6304 0001:00009152  6310 0001:000091A6  6319 0001:000091DC  6320 0001:000091F7
  6322 0001:00009201  6323 0001:0000920C  6325 0001:0000921E  6333 0001:00009272
  6335 0001:00009276  6336 0001:0000927C  6337 0001:00009287  6340 0001:000092BE
  6346 0001:00009328  6347 0001:00009340  6349 0001:0000934A  6353 0001:0000937D
  6354 0001:00009383  6356 0001:0000938E  6363 0001:000093C4  6364 0001:000093E0
  6365 0001:000093EF  6366 0001:000093F9  6371 0001:0000943B  6372 0001:0000944F
  6378 0001:0000948C  6379 0001:000094A8  6380 0001:000094AF  6381 0001:000094B9
  6384 0001:000094EC  6385 0001:000094F2  6386 0001:000094FA  6387 0001:000094FE
  6394 0001:00009530  6395 0001:0000954A  6396 0001:00009554  6399 0001:0000959C
  6400 0001:000095D3  6408 0001:00009634  6409 0001:0000964E  6410 0001:00009659
  6411 0001:00009664  6412 0001:0000966E  6416 0001:000096CD  6418 0001:000096D1
  6419 0001:000096DC  6421 0001:000096E7  6427 0001:0000971C  6428 0001:00009730
  6429 0001:0000973A  6430 0001:00009763  6434 0001:00009788  6435 0001:000097A0
  6436 0001:000097AA  6440 0001:000097E8  6444 0001:0000981C  6445 0001:00009832
  6446 0001:0000983C  6450 0001:00009873  6454 0001:000098A0  6455 0001:000098B6
  6456 0001:000098C0  6457 0001:000098EA  6465 0001:00009918  6466 0001:00009936
  6467 0001:00009945  6468 0001:00009953  6469 0001:00009962  6471 0001:00009977
  6472 0001:00009989  6473 0001:0000999F  6469 0001:000099A0  6474 0001:000099A3
  6475 0001:000099AD  6477 0001:000099D7  6479 0001:000099E7  6485 0001:00009A14
  6486 0001:00009A35  6487 0001:00009A3F  6488 0001:00009A49  6490 0001:00009A6B
  6491 0001:00009A87  6495 0001:00009AB8  6496 0001:00009ACE  6497 0001:00009AD8
  6498 0001:00009B06  6503 0001:00009B34  6504 0001:00009B4C  6505 0001:00009B56
  6507 0001:00009B98  6513 0001:00009BD0  6514 0001:00009BE4  6515 0001:00009BEE
  6516 0001:00009C0F  6520 0001:00009C34  6521 0001:00009C48  6522 0001:00009C52
  6523 0001:00009C74  6527 0001:00009C9C  6528 0001:00009CB4  6529 0001:00009CBE
  6530 0001:00009D01  6537 0001:00009D38  6538 0001:00009D4C  6539 0001:00009D56
  6541 0001:00009D90  6547 0001:00009DB8  6548 0001:00009DCC  6549 0001:00009DD6
  6550 0001:00009DF8  6556 0001:00009E20  6557 0001:00009E3A  6558 0001:00009E44
  6560 0001:00009E4E  6564 0001:00009E6F  6566 0001:00009E79  6570 0001:00009EA8
  6571 0001:00009EBC  6572 0001:00009EC6  6573 0001:00009EE8  6579 0001:00009F10
  6580 0001:00009F28  6581 0001:00009F32  6583 0001:00009F75  6589 0001:00009FAC
  6590 0001:00009FC0  6591 0001:00009FCA  6593 0001:00009FEC  6602 0001:0000A014
  6603 0001:0000A033  6605 0001:0000A03D  6611 0001:0000A0B3  6613 0001:0000A0BB
  6614 0001:0000A0DA  6615 0001:0000A0F9  6616 0001:0000A118  6617 0001:0000A137
  6618 0001:0000A156  6621 0001:0000A175  6628 0001:0000A1B0  6629 0001:0000A1C4
  6630 0001:0000A1CE  6632 0001:0000A207  6639 0001:0000A22C  6640 0001:0000A244
  6641 0001:0000A24E  6643 0001:0000A291  6650 0001:0000A2C8  6651 0001:0000A2E0
  6652 0001:0000A2EA  6653 0001:0000A2F4  6655 0001:0000A33B  6656 0001:0000A33F
  6657 0001:0000A348  6665 0001:0000A380  6666 0001:0000A39F  6667 0001:0000A3A9
  6669 0001:0000A3B3  6673 0001:0000A40D  6675 0001:0000A411  6676 0001:0000A41A
  6679 0001:0000A439  6685 0001:0000A47C  6686 0001:0000A494  6687 0001:0000A49E
  6689 0001:0000A4E1  6694 0001:0000A518  6695 0001:0000A530  6696 0001:0000A53A
  6698 0001:0000A57D  6703 0001:0000A5B4  6704 0001:0000A5CD  6705 0001:0000A5D7
  6708 0001:0000A642  6714 0001:0000A688  6715 0001:0000A69C  6716 0001:0000A6A6
  6717 0001:0000A6C8  6721 0001:0000A6F0  6722 0001:0000A704  6723 0001:0000A70E
  6724 0001:0000A730  6728 0001:0000A758  6729 0001:0000A76C  6730 0001:0000A776
  6731 0001:0000A7A4  6735 0001:0000A7CC  6736 0001:0000A7E0  6737 0001:0000A7EA
  6738 0001:0000A80B  6742 0001:0000A830  6743 0001:0000A844  6744 0001:0000A84E
  6745 0001:0000A86B  6751 0001:0000A890  6752 0001:0000A8A4  6753 0001:0000A8AE
  6754 0001:0000A8D7  6758 0001:0000A8FC  6759 0001:0000A910  6760 0001:0000A91A
  6761 0001:0000A937  6767 0001:0000A95C  6768 0001:0000A972  6769 0001:0000A97C
  6771 0001:0000A9B4  6775 0001:0000A9E4  6776 0001:0000A9FA  6777 0001:0000AA04
  6779 0001:0000AA3C  6784 0001:0000AA6C  6785 0001:0000AA70  6786 0001:0000AA78
  6787 0001:0000AA87  6790 0001:0000AA8C  6791 0001:0000AA8F  6792 0001:0000AA97
  6793 0001:0000AAA5  6796 0001:0000AAAC  6797 0001:0000AAB2  6798 0001:0000AABA
  6799 0001:0000AAC5  6802 0001:0000AAD4  6803 0001:0000AAD8  6804 0001:0000AAE2
  6805 0001:0000AAEC  6856 0001:0000AAF4  6857 0001:0000AB0C  6858 0001:0000AB16
  6860 0001:0000AB6A  6866 0001:0000ABA8  6867 0001:0000ABBE  6868 0001:0000ABC8
  6870 0001:0000ABFC  6877 0001:0000AC2C  6878 0001:0000AC49  6880 0001:0000AC8A
  6881 0001:0000AC98  6882 0001:0000ACA8  6884 0001:0000ACBF  6886 0001:0000ACCF
  6889 0001:0000AD00  6890 0001:0000AD03  6891 0001:0000AD0B  6892 0001:0000AD10
  6897 0001:0000AD14  6898 0001:0000AD28  6899 0001:0000AD32  6901 0001:0000AD5C
  6908 0001:0000AD84  6909 0001:0000ADA2  6911 0001:0000ADDA  6912 0001:0000ADE8
  6913 0001:0000ADF8  6914 0001:0000AE02  6916 0001:0000AE17  6918 0001:0000AE27
  6924 0001:0000AE50  6925 0001:0000AE6A  6927 0001:0000AE97  6928 0001:0000AEA5
  6929 0001:0000AEB5  6930 0001:0000AEC6  6931 0001:0000AECF  6933 0001:0000AEEA
  6935 0001:0000AEFA  6941 0001:0000AF20  6942 0001:0000AF36  6943 0001:0000AF40
  6944 0001:0000AF4A  6945 0001:0000AF6B  6946 0001:0000AF71  6947 0001:0000AF7C
  6960 0001:0000AFA8  6961 0001:0000AFCF  6962 0001:0000AFE6  6963 0001:0000AFF0
  6962 0001:0000B00F  6965 0001:0000B012  6967 0001:0000B057  6968 0001:0000B08E
  6969 0001:0000B096  6970 0001:0000B0B5  6994 0001:0000B134  6995 0001:0000B148
  6996 0001:0000B16A  7001 0001:0000B190  7002 0001:0000B1A4  7003 0001:0000B1C6
  7065 0001:0000B1EC  7066 0001:0000B206  7068 0001:0000B255  7069 0001:0000B28C
  7074 0001:0000B2F0  7075 0001:0000B308  7077 0001:0000B362  7104 0001:0000B3A0
  7105 0001:0000B3BA  7107 0001:0000B3DD  7108 0001:0000B3E8  7116 0001:0000B414
  7117 0001:0000B42E  7119 0001:0000B44F  7120 0001:0000B453  7121 0001:0000B472
  7125 0001:0000B498  7126 0001:0000B49C  7128 0001:0000B4B8  7133 0001:0000B4C0
  7134 0001:0000B4D4  7135 0001:0000B4DE  7136 0001:0000B4F8  7139 0001:0000B51C
  7140 0001:0000B530  7141 0001:0000B554  7144 0001:0000B57C  7145 0001:0000B590
  7146 0001:0000B5B4  7152 0001:0000B5DC  7153 0001:0000B5F2  7154 0001:0000B5FC
  7155 0001:0000B62F  7159 0001:0000B660  7160 0001:0000B676  7161 0001:0000B680
  7162 0001:0000B6B5  7167 0001:0000B6E4  7168 0001:0000B6FE  7169 0001:0000B70D
  7170 0001:0000B71A  7171 0001:0000B71C  7172 0001:0000B720  7173 0001:0000B72C
  7174 0001:0000B731  7175 0001:0000B739  7176 0001:0000B741  7177 0001:0000B749
  7180 0001:0000B768  7181 0001:0000B776  7182 0001:0000B77A  7183 0001:0000B782
  7184 0001:0000B78A  7185 0001:0000B796  7188 0001:0000B7A8  7189 0001:0000B7AC
  7190 0001:0000B7B1  7191 0001:0000B7B7  7192 0001:0000B7BB  7195 0001:0000B7C0
  7196 0001:0000B7C3  7197 0001:0000B7CB  7200 0001:0000B7D0  7201 0001:0000B7D3
  7202 0001:0000B7DB  7207 0001:0000B7E0  7208 0001:0000B7F8  7209 0001:0000B810
  7210 0001:0000B813  7213 0001:0000B8E8  7214 0001:0000B8F6  7215 0001:0000B8FF
  7216 0001:0000B903  7217 0001:0000B90F  7220 0001:0000B920  7221 0001:0000B92C
  7222 0001:0000B930  7223 0001:0000B94F  7224 0001:0000B956  7227 0001:0000B96C
  7228 0001:0000B970  7229 0001:0000B975  7230 0001:0000B97B  7231 0001:0000B97F
  7236 0001:0000B984  7237 0001:0000B98B  7238 0001:0000B997  7241 0001:0000B99C
  7242 0001:0000B9A3  7243 0001:0000B9AF  7246 0001:0000B9B4  7247 0001:0000B9B7
  7248 0001:0000B9BE  7251 0001:0000B9C0  7252 0001:0000B9C3  7253 0001:0000B9CA
  7256 0001:0000B9CC  7257 0001:0000B9CF  7258 0001:0000B9D6  7264 0001:0000B9D8
  7265 0001:0000B9E7  7266 0001:0000B9F1  7268 0001:0000BA0F  7271 0001:0000BA18
  7272 0001:0000BA22  7273 0001:0000BA37  7278 0001:0000BA3C  7279 0001:0000BA4B
  7280 0001:0000BA55  7281 0001:0000BA6E  7288 0001:0000BA78  7289 0001:0000BA98
  7290 0001:0000BAA1  7291 0001:0000BAAF  7292 0001:0000BABA  7293 0001:0000BAC9
  7295 0001:0000BADE  7296 0001:0000BAF0  7297 0001:0000BB05  7293 0001:0000BB06
  7299 0001:0000BB16  7301 0001:0000BB29  7304 0001:0000BB50  7305 0001:0000BB5A
  7306 0001:0000BB6F  7309 0001:0000BB74  7310 0001:0000BB77  7311 0001:0000BB7E
  7315 0001:0000BB80  7316 0001:0000BB8E  7317 0001:0000BBAA  7320 0001:0000BBB4
  7321 0001:0000BBBE  7322 0001:0000BBD3  7325 0001:0000BBD8  7326 0001:0000BBDB
  7327 0001:0000BBE2  7331 0001:0000BBE4  7332 0001:0000BBF4  7333 0001:0000BC0C
  7336 0001:0000BC18  7337 0001:0000BC1B  7338 0001:0000BC22  7341 0001:0000BC24
  7342 0001:0000BC2A  7343 0001:0000BC35  7346 0001:0000BC3C  7347 0001:0000BC3F
  7348 0001:0000BC46  7351 0001:0000BC48  7352 0001:0000BC4B  7353 0001:0000BC52
  7356 0001:0000BC54  7357 0001:0000BC5B  7358 0001:0000BC67  7361 0001:0000BC6C
  7362 0001:0000BC6F  7363 0001:0000BC79  7366 0001:0000BC7C  7367 0001:0000BC7F
  7368 0001:0000BC8A  7371 0001:0000BC8C  7372 0001:0000BC93  7373 0001:0000BC9F
  7376 0001:0000BCA4  7377 0001:0000BCAB  7378 0001:0000BCBA  7381 0001:0000BCC0
  7382 0001:0000BCC7  7383 0001:0000BCD3  7386 0001:0000BCD8  7387 0001:0000BCDB
  7388 0001:0000BCE2  7391 0001:0000BCE4  7392 0001:0000BCE7  7393 0001:0000BCEE
  7396 0001:0000BCF0  7397 0001:0000BCF3  7398 0001:0000BCFA  7401 0001:0000BCFC
  7402 0001:0000BCFF  7403 0001:0000BD09  7406 0001:0000BD0C  7407 0001:0000BD0F
  7408 0001:0000BD1D  7411 0001:0000BD20  7412 0001:0000BD25  7413 0001:0000BD35
  7417 0001:0000BD3C  7418 0001:0000BD41  7419 0001:0000BD5A  7422 0001:0000BD60
  7423 0001:0000BD65  7424 0001:0000BD76  7427 0001:0000BD7C  7428 0001:0000BD81
  7429 0001:0000BD95  7432 0001:0000BD9C  7433 0001:0000BD9F  7434 0001:0000BDAA
  7438 0001:0000BDAC  7439 0001:0000BDB1  7440 0001:0000BDC1  7443 0001:0000BDC8
  7444 0001:0000BDCB  7445 0001:0000BDD8  7448 0001:0000BDDC  7449 0001:0000BDDF
  7450 0001:0000BDE6  7453 0001:0000BDE8  7454 0001:0000BDEB  7455 0001:0000BDF6
  7458 0001:0000BDF8  7459 0001:0000BDFB  7460 0001:0000BE02  7463 0001:0000BE04
  7464 0001:0000BE10  7465 0001:0000BE14  7466 0001:0000BE33  7467 0001:0000BE3A
  7472 0001:0000BE50  7473 0001:0000BE53  7474 0001:0000BE5A  7477 0001:0000BE5C
  7478 0001:0000BE5F  7479 0001:0000BE66  7482 0001:0000BE68  7483 0001:0000BE6B
  7484 0001:0000BE72  7490 0001:0000BE74  7491 0001:0000BE83  7492 0001:0000BE8D
  7493 0001:0000BE97  7494 0001:0000BEAA  7497 0001:0000BEB4  7498 0001:0000BEBE
  7499 0001:0000BED3  7502 0001:0000BED8  7503 0001:0000BEDE  7504 0001:0000BEEB
  7507 0001:0000BEF8  7508 0001:0000BF02  7509 0001:0000BF10  7512 0001:0000BF18
  7513 0001:0000BF22  7514 0001:0000BF37  7517 0001:0000BF3C  7518 0001:0000BF46
  7519 0001:0000BF54  7522 0001:0000BF5C  7523 0001:0000BF66  7524 0001:0000BF74
  7527 0001:0000BF7C  7528 0001:0000BF86  7529 0001:0000BF94  7532 0001:0000BF9C
  7533 0001:0000BFA6  7534 0001:0000BFBB  7537 0001:0000BFC0  7538 0001:0000BFC7
  7539 0001:0000BFD3  7542 0001:0000BFD8  7543 0001:0000BFDF  7544 0001:0000BFEB
  7550 0001:0000BFF0  7551 0001:0000C018  7552 0001:0000C022  7553 0001:0000C03C
  7555 0001:0000C042  7556 0001:0000C04C  7558 0001:0000C08A  7561 0001:0000C0D4
  7562 0001:0000C0EF  7563 0001:0000C127  7569 0001:0000C168  7570 0001:0000C193
  7571 0001:0000C1B7  7573 0001:0000C1BD  7574 0001:0000C1C8  7576 0001:0000C206
  7581 0001:0000C268  7582 0001:0000C277  7583 0001:0000C281  7584 0001:0000C28B
  7585 0001:0000C29A  7590 0001:0000C2A4  7591 0001:0000C2B0  7592 0001:0000C2BA
  7593 0001:0000C2C5  7596 0001:0000C2CC  7597 0001:0000C2CF  7598 0001:0000C2D6
  7601 0001:0000C2D8  7602 0001:0000C2DB  7603 0001:0000C2E2  7606 0001:0000C2E4
  7607 0001:0000C2E7  7608 0001:0000C2EE  7611 0001:0000C2F0  7612 0001:0000C2F3
  7613 0001:0000C2FA  7616 0001:0000C2FC  7617 0001:0000C2FF  7618 0001:0000C306
  7621 0001:0000C308  7622 0001:0000C30B  7623 0001:0000C312  7626 0001:0000C314
  7627 0001:0000C32F  7628 0001:0000C367  7631 0001:0000C3A8  7632 0001:0000C3C1
  7633 0001:0000C3EF  7636 0001:0000C424  7637 0001:0000C430  7638 0001:0000C434
  7639 0001:0000C453  7640 0001:0000C45A  7645 0001:0000C470  7646 0001:0000C489
  7647 0001:0000C497  7648 0001:0000C49A  7649 0001:0000C4A1  7651 0001:0000C4A4
  7652 0001:0000C4AB  7653 0001:0000C4B2  7654 0001:0000C4B9  7656 0001:0000C4C0
  7659 0001:0000C4E0  7660 0001:0000C4F9  7661 0001:0000C516  7664 0001:0000C534
  7665 0001:0000C542  7666 0001:0000C548  7667 0001:0000C550  7668 0001:0000C55C
  7671 0001:0000C56C  7672 0001:0000C575  7673 0001:0000C57D  7674 0001:0000C58B
  7676 0001:0000C5C1  7678 0001:0000C5D1  7681 0001:0000C5DC  7682 0001:0000C5EB
  7683 0001:0000C5F3  7684 0001:0000C601  7686 0001:0000C628  7688 0001:0000C638
  7691 0001:0000C644  7692 0001:0000C650  7693 0001:0000C658  7694 0001:0000C666
  7696 0001:0000C686  7698 0001:0000C696  7701 0001:0000C6A0  7702 0001:0000C6A9
  7703 0001:0000C6B1  7704 0001:0000C6BF  7706 0001:0000C6DD  7708 0001:0000C6ED
  7714 0001:0000C6F8  7715 0001:0000C713  7716 0001:0000C74D  7719 0001:0000C790
  7720 0001:0000C793  7721 0001:0000C79A  7727 0001:0000C79C  7728 0001:0000C7BF
  7729 0001:0000C7DC  7730 0001:0000C7EB  7731 0001:0000C7FC  7732 0001:0000C80A
  7733 0001:0000C819  7734 0001:0000C824  7733 0001:0000C845  7736 0001:0000C855
  7738 0001:0000C865  7741 0001:0000C888  7742 0001:0000C891  7743 0001:0000C8A2
  7747 0001:0000C8A8  7748 0001:0000C8C3  7749 0001:0000C8FD  7752 0001:0000C940
  7753 0001:0000C943  7754 0001:0000C94A  7757 0001:0000C94C  7758 0001:0000C958
  7759 0001:0000C95C  7760 0001:0000C97B  7761 0001:0000C982  7767 0001:0000C998
  7768 0001:0000C99C  7769 0001:0000C9A5  7772 0001:0000C9A8  7773 0001:0000C9AB
  7774 0001:0000C9B2  7777 0001:0000C9B4  7778 0001:0000C9BE  7779 0001:0000C9CC
  7782 0001:0000C9D4  7783 0001:0000C9D7  7784 0001:0000C9DE  7787 0001:0000C9E0
  7788 0001:0000C9E9  7789 0001:0000C9FA  7792 0001:0000CA00  7793 0001:0000CA04
  7794 0001:0000CA0D  7797 0001:0000CA10  7798 0001:0000CA13  7799 0001:0000CA1A
  7804 0001:0000CA1C  7805 0001:0000CA28  7806 0001:0000CA32  7807 0001:0000CA3D
  7810 0001:0000CA44  7811 0001:0000CA50  7812 0001:0000CA54  7813 0001:0000CA73
  7814 0001:0000CA7A  7945 0001:0000CA90  7946 0001:0000CAB9  7947 0001:0000CAC3
  7948 0001:0000CACE  7949 0001:0000CB19  7952 0001:0000CB5C  7953 0001:0000CB66
  7954 0001:0000CB74  7957 0001:0000CB7C  7958 0001:0000CB7F  7959 0001:0000CB86
  7962 0001:0000CB88  7963 0001:0000CB92  7964 0001:0000CBA1  7967 0001:0000CBA8
  7968 0001:0000CBB2  7969 0001:0000CBC0  7972 0001:0000CBC8  7973 0001:0000CBD2
  7974 0001:0000CBE7  7977 0001:0000CBEC  7978 0001:0000CBF6  7979 0001:0000CC04
  7982 0001:0000CC0C  7983 0001:0000CC15  7984 0001:0000CC26  7989 0001:0000CC2C
  7990 0001:0000CC38  7991 0001:0000CC42  7992 0001:0000CC4D  7995 0001:0000CC54
  7996 0001:0000CC57  7997 0001:0000CC5F  8000 0001:0000CC64  8001 0001:0000CC6E
  8002 0001:0000CC7D  8007 0001:0000CC84  8008 0001:0000CC90  8009 0001:0000CC9A
  8010 0001:0000CCA5  8013 0001:0000CCAC  8014 0001:0000CCC7  8015 0001:0000CCCB
  8016 0001:0000CD03  8021 0001:0000CD44  8022 0001:0000CD50  8023 0001:0000CD5A
  8024 0001:0000CD65  8027 0001:0000CD6C  8028 0001:0000CD78  8029 0001:0000CD7C
  8030 0001:0000CD9B  8031 0001:0000CDA2  8037 0001:0000CDB8  8038 0001:0000CDD6
  8039 0001:0000CE1B  8042 0001:0000CE5C  8043 0001:0000CE68  8044 0001:0000CE7F
  8049 0001:0000CE88  8050 0001:0000CE97  8051 0001:0000CEA1  8052 0001:0000CEB7
  8056 0001:0000CEC0  8057 0001:0000CEDC  8058 0001:0000CF0E  8061 0001:0000CF44
  8062 0001:0000CF4B  8063 0001:0000CF57  8066 0001:0000CF5C  8067 0001:0000CF61
  8068 0001:0000CF6E  8071 0001:0000CF74  8072 0001:0000CF77  8073 0001:0000CF85
  8076 0001:0000CF8C  8077 0001:0000CF92  8078 0001:0000CF9F  8081 0001:0000CFAC
  8082 0001:0000CFB8  8083 0001:0000CFBC  8084 0001:0000CFDB  8085 0001:0000CFE2
  8093 0001:0000CFF8  8094 0001:0000CFFB  8095 0001:0000D004  8100 0001:0000D07A
  8113 0001:0000D07C  8114 0001:0000D0C2  8117 0001:0000D0CB  8119 0001:0000D0D9
  8120 0001:0000D0EB  8121 0001:0000D0F0  8123 0001:0000D0F5  8124 0001:0000D107
  8125 0001:0000D119  8126 0001:0000D12B  8127 0001:0000D13D  8128 0001:0000D14F
  8129 0001:0000D161  8130 0001:0000D173  8131 0001:0000D185  8132 0001:0000D197
  8133 0001:0000D1A9  8134 0001:0000D1BB  8135 0001:0000D1CD  8136 0001:0000D1DF
  8137 0001:0000D1F1  8138 0001:0000D203  8139 0001:0000D215  8140 0001:0000D227
  8141 0001:0000D239  8142 0001:0000D24B  8143 0001:0000D25D  8144 0001:0000D26F
  8145 0001:0000D281  8162 0001:0000D293  8163 0001:0000D29D  8164 0001:0000D2A7
  8165 0001:0000D2B1  8166 0001:0000D2BB  8167 0001:0000D2C5  8168 0001:0000D2CF
  8169 0001:0000D2D9  8170 0001:0000D2E3  8171 0001:0000D2ED  8172 0001:0000D2F7
  8189 0001:0000D301  8190 0001:0000D313  8191 0001:0000D325  8192 0001:0000D337
  8193 0001:0000D349  8194 0001:0000D35B  8195 0001:0000D36D  8196 0001:0000D37F
  8197 0001:0000D391  8198 0001:0000D3A3  8199 0001:0000D3B5  8200 0001:0000D3C7
  8201 0001:0000D3D9  8202 0001:0000D3EB  8203 0001:0000D3FD  8204 0001:0000D40F
  8205 0001:0000D421  8206 0001:0000D433  8207 0001:0000D445  8208 0001:0000D457
  8209 0001:0000D469  8210 0001:0000D47B  8211 0001:0000D48D  8212 0001:0000D49F
  8213 0001:0000D4B1  8214 0001:0000D4C3  8215 0001:0000D4D5  8216 0001:0000D4E7
  8217 0001:0000D4F9  8218 0001:0000D50B  8219 0001:0000D51D  8220 0001:0000D52F
  8221 0001:0000D541  8222 0001:0000D553  8223 0001:0000D565  8224 0001:0000D577
  8225 0001:0000D589  8226 0001:0000D59B  8227 0001:0000D5AD  8228 0001:0000D5BF
  8229 0001:0000D5D1  8230 0001:0000D5E3  8231 0001:0000D5F5  8232 0001:0000D607
  8233 0001:0000D619  8234 0001:0000D62B  8235 0001:0000D63D  8236 0001:0000D64F
  8237 0001:0000D661  8238 0001:0000D673  8239 0001:0000D685  8240 0001:0000D697
  8241 0001:0000D6A9  8242 0001:0000D6BB  8243 0001:0000D6CD  8244 0001:0000D6DF
  8245 0001:0000D6F1  8246 0001:0000D703  8247 0001:0000D715  8248 0001:0000D727
  8250 0001:0000D739  8251 0001:0000D74B  8252 0001:0000D75D  8253 0001:0000D76F
  8254 0001:0000D781  8255 0001:0000D793  8256 0001:0000D7A5  8257 0001:0000D7B7
  8258 0001:0000D7C9  8259 0001:0000D7DB  8261 0001:0000D7ED  8262 0001:0000D7FF
  8264 0001:0000D811  8265 0001:0000D823  8266 0001:0000D835  8268 0001:0000D847
  8270 0001:0000D859  8376 0001:0000DD24  8378 0001:0000DD3A  8379 0001:0000DD4C
  8381 0001:0000DD56  8385 0001:0000DD5D  8386 0001:0000DD8E  8387 0001:0000DDB9
  8388 0001:0000DDE2  8389 0001:0000DE0B  8391 0001:0000DE15  8392 0001:0000DE1E
  8393 0001:0000DE2D  8394 0001:0000DE3B  8395 0001:0000DE47  8396 0001:0000DE52
  8398 0001:0000DE64  8399 0001:0000DE85  8400 0001:0000DE99  8396 0001:0000DE9A
  8402 0001:0000DEAA  8405 0001:0000DEBA  8406 0001:0000DEE3  8407 0001:0000DEE9
  8408 0001:0000DEF0  8409 0001:0000DEF6  8410 0001:0000DEFC  8411 0001:0000DF02
  8413 0001:0000DF2B  8415 0001:0000DF32  8416 0001:0000DF5B  8417 0001:0000DF84
  8418 0001:0000DF8B  8419 0001:0000DF91  8421 0001:0000DF97  8422 0001:0000DFC8
  8423 0001:0000DFCE  8425 0001:0000DFD9  8446 0001:0000F418  8447 0001:0000F427
  8448 0001:0000F42C  8449 0001:0000F436  8455 0001:0000F458  8459 0001:0000F464
  8460 0001:0000F467  8461 0001:0000F470  8462 0001:0000F476  8483 0001:0000F478
  8484 0001:0000F47B  8486 0001:0000F484  8487 0001:0000F48A  8488 0001:0000F495
  8490 0001:0000F49C  8493 0001:0000F4A0  8494 0001:0000F4C0  8495 0001:0000F4CA
  8496 0001:0000F4DA  8497 0001:0000F4DF  8500 0001:0000F500  8501 0001:0000F506
  8502 0001:0000F50A  8503 0001:0000F51A  8504 0001:0000F523  8522 0001:0000F528
  8523 0001:0000F548  8524 0001:0000F556  8525 0001:0000F55C  8526 0001:0000F57D
  8529 0001:0000F5A0  8530 0001:0000F5C0  8531 0001:0000F5C4  8532 0001:0000F5E7
  8535 0001:0000F608  8536 0001:0000F611  8537 0001:0000F61A  8538 0001:0000F622
  8541 0001:0000F628  8542 0001:0000F631  8544 0001:0000F635  8545 0001:0000F63E
  8547 0001:0000F648  8548 0001:0000F651  8560 0001:0000F658  8561 0001:0000F67A
  8562 0001:0000F67F  8563 0001:0000F689  8564 0001:0000F693  8568 0001:0000F6E4
  8611 0001:0000F71C  8612 0001:0000F741  8613 0001:0000F746  8614 0001:0000F750
  8615 0001:0000F75A  8616 0001:0000F7A5  8636 0001:0000F7E8  8637 0001:0000F801
  8638 0001:0000F80F  8639 0001:0000F812  8640 0001:0000F81A  8641 0001:0000F81D
  8642 0001:0000F824  8646 0001:0000F844  8647 0001:0000F850  8648 0001:0000F878
  8655 0001:0000F890  8656 0001:0000F894  8660 0001:0000F898  8661 0001:0000F8B1
  8662 0001:0000F8BF  8663 0001:0000F8C3  8664 0001:0000F8CE  8665 0001:0000F8D9
  8666 0001:0000F8E4  8668 0001:0000F8E7  8670 0001:0000F8EB  8671 0001:0000F8F3
  8672 0001:0000F8FB  8675 0001:0000F905  8676 0001:0000F90D  8677 0001:0000F915
  8679 0001:0000F91D  8681 0001:0000F925  8685 0001:0000F948  8687 0001:0000F94B
  8692 0001:0000F950  8693 0001:0000F952  8697 0001:0000F954  8698 0001:0000F957
  8699 0001:0000F959  8705 0001:0000F960  8706 0001:0000F963  8707 0001:0000F96E
  8710 0001:0000F970  8711 0001:0000F977  8712 0001:0000F983  8715 0001:0000F988
  8716 0001:0000F994  8717 0001:0000F9A7  8720 0001:0000F9AC  8721 0001:0000F9B8
  8722 0001:0000F9CE  8727 0001:0000F9D4  8728 0001:0000F9E0  8729 0001:0000F9EE
  8730 0001:0000FA04  8733 0001:0000FA0C  8734 0001:0000FA15  8735 0001:0000FA2F
  8741 0001:0000FA38  8742 0001:0000FA5D  8743 0001:0000FA67  8744 0001:0000FAB3
  8747 0001:0000FAF4  8748 0001:0000FB00  8749 0001:0000FB13  8752 0001:0000FB18
  8753 0001:0000FB21  8754 0001:0000FB32  8757 0001:0000FB38  8758 0001:0000FB56
  8759 0001:0000FB9B  8764 0001:0000FBDC  8765 0001:0000FBF8  8767 0001:0000FC2A
  8772 0001:0000FC60  8773 0001:0000FC6F  8774 0001:0000FC79  8775 0001:0000FC8F
  8778 0001:0000FC98  8779 0001:0000FCA4  8780 0001:0000FCB7  8783 0001:0000FCBC
  8784 0001:0000FCC5  8785 0001:0000FCD6  8788 0001:0000FCDC  8789 0001:0000FCE6
  8790 0001:0000FCF6  8795 0001:0000FCFC  8796 0001:0000FD08  8797 0001:0000FD12
  8798 0001:0000FD22  8805 0001:0000FD28  8806 0001:0000FD52  8807 0001:0000FD65
  8808 0001:0000FD73  8809 0001:0000FD84  8808 0001:0000FDBD  8810 0001:0000FDC0
  8813 0001:0000FE2A  8815 0001:0000FE3A  8822 0001:0000FE7C  8823 0001:0000FEAD
  8824 0001:0000FEC0  8825 0001:0000FECE  8826 0001:0000FEDF  8825 0001:0000FF18
  8827 0001:0000FF1B  8830 0001:0000FFC0  8832 0001:0000FFD0  8835 0001:00010014
  8836 0001:00010017  8837 0001:00010021  8840 0001:00010024  8841 0001:0001002B
  8842 0001:00010037  8845 0001:0001003C  8846 0001:00010046  8847 0001:0001005D
  8850 0001:00010068  8851 0001:0001006E  8852 0001:00010079  8855 0001:00010080
  8856 0001:0001008A  8857 0001:0001009F  8860 0001:000100A4  8861 0001:000100A7
  8862 0001:000100B1  8865 0001:000100B4  8866 0001:000100BE  8867 0001:000100D6
  8870 0001:000100DC  8871 0001:000100E6  8872 0001:000100F7  8875 0001:000100FC
  8876 0001:000100FF  8877 0001:00010106  8884 0001:00010108  8885 0001:00010128
  8886 0001:00010131  8887 0001:0001013F  8888 0001:00010150  8889 0001:0001015F
  8891 0001:00010174  8892 0001:00010186  8893 0001:0001019B  8889 0001:0001019C
  8895 0001:000101AC  8897 0001:000101BF  8900 0001:000101E8  8901 0001:000101F2
  8902 0001:00010200  8905 0001:00010208  8906 0001:0001020B  8907 0001:00010212
  8910 0001:00010214  8911 0001:0001021E  8912 0001:00010236  8915 0001:0001023C
  8916 0001:0001024C  8917 0001:00010266  8922 0001:00010270  8923 0001:0001027F
  8924 0001:00010289  8925 0001:000102A5  8928 0001:000102AC  8929 0001:000102B3
  8930 0001:000102BF  8933 0001:000102C4  8934 0001:000102CE  8935 0001:000102DB
  8940 0001:000102E0  8941 0001:000102EC  8942 0001:000102F6  8943 0001:00010306
  8946 0001:0001030C  8947 0001:00010313  8948 0001:0001031F  8951 0001:00010324
  8952 0001:0001032B  8953 0001:00010337  8956 0001:0001033C  8957 0001:00010343
  8958 0001:0001034F  8961 0001:00010354  8962 0001:0001035B  8963 0001:00010367
  8966 0001:0001036C  8967 0001:00010373  8968 0001:0001037F  8971 0001:00010384
  8972 0001:0001038B  8973 0001:00010397  8976 0001:0001039C  8977 0001:000103A3
  8978 0001:000103AF  8981 0001:000103B4  8982 0001:000103BB  8983 0001:000103C7
  8986 0001:000103CC  8987 0001:000103E8  8988 0001:00010429  8991 0001:0001046C
  8992 0001:00010473  8993 0001:0001047F  8996 0001:00010484  8997 0001:0001048B
  8998 0001:00010497  9001 0001:0001049C  9002 0001:000104A3  9003 0001:000104AF
  9006 0001:000104B4  9007 0001:000104BB  9008 0001:000104C7  9011 0001:000104CC
  9012 0001:000104D3  9013 0001:000104DF  9016 0001:000104E4  9017 0001:000104EE
  9018 0001:000104FE  9021 0001:00010504  9022 0001:00010520  9023 0001:00010564
  9029 0001:000105A8  9030 0001:000105B7  9031 0001:000105C1  9032 0001:000105D9
  9036 0001:000105E4  9037 0001:00010605  9038 0001:0001064D  9044 0001:00010690
  9045 0001:000106B5  9046 0001:000106BF  9047 0001:0001070B  9050 0001:00010750
  9051 0001:0001075C  9052 0001:00010760  9053 0001:0001077F  9054 0001:00010786
  9057 0001:0001079C  9058 0001:000107A3  9059 0001:000107AF  9072 0001:000107EC
  9073 0001:00010826  9074 0001:00010844  9075 0001:00010855  9074 0001:0001088E
  9076 0001:00010891  9077 0001:00010896  9078 0001:000108A5  9079 0001:000108B0
  9081 0001:0001090E  9082 0001:00010929  9083 0001:0001093F  9086 0001:000109A0
  9087 0001:000109AC  9088 0001:000109B0  9089 0001:000109CF  9090 0001:000109D6
  9095 0001:000109EC  9096 0001:00010A01  9097 0001:00010A0F  9098 0001:00010A12
  9099 0001:00010A1A  9104 0001:00010A38  9105 0001:00010A3B  9106 0001:00010A3D
  9590 0001:00010A44  9591 0001:00010A4D  9592 0001:00010A5E  9595 0001:00010A64
  9596 0001:00010A6B  9597 0001:00010A77  9600 0001:00010A7C  9601 0001:00010A85
  9602 0001:00010A96  9610 0001:00010A9C  9611 0001:00010AD7  9612 0001:00010ADC
  9613 0001:00010AE1  9614 0001:00010AEB  9615 0001:00010B05  9616 0001:00010B20
  9617 0001:00010B3B  9620 0001:00010B6C  9621 0001:00010B73  9622 0001:00010B7F
  9625 0001:00010B84  9626 0001:00010B8E  9627 0001:00010BA3  9630 0001:00010BA8
  9631 0001:00010BB2  9632 0001:00010BC7  9635 0001:00010BCC  9636 0001:00010BD6
  9637 0001:00010BEB  9640 0001:00010BF0  9641 0001:00010C0C  9642 0001:00010C50
  9645 0001:00010C94  9646 0001:00010C9B  9647 0001:00010CA7  9650 0001:00010CAC
  9651 0001:00010CB8  9652 0001:00010CBC  9653 0001:00010CDB  9654 0001:00010CE2
  9659 0001:00010CF8  9660 0001:00010D0D  9661 0001:00010D1B  9662 0001:00010D1E
  9663 0001:00010D26  9668 0001:00010D44  9673 0001:00010D48  9674 0001:00010D60
  9675 0001:00010D69  9676 0001:00010D73  9679 0001:00010D90  9680 0001:00010D93
  9681 0001:00010D9B  9686 0001:00010DA0  9687 0001:00010DAA  9688 0001:00010DB8
  9691 0001:00010DC0  9692 0001:00010DCA  9693 0001:00010DDF  9698 0001:00010DE4
  9699 0001:00010DF3  9700 0001:00010DFD  9701 0001:00010E0F  9704 0001:00010E18
  9705 0001:00010E22  9706 0001:00010E37  9711 0001:00010E3C  9712 0001:00010E4B
  9713 0001:00010E55  9714 0001:00010E6E  9717 0001:00010E78  9718 0001:00010E82
  9719 0001:00010E97  9722 0001:00010E9C  9723 0001:00010EA6  9724 0001:00010EBB
  9727 0001:00010EC0  9728 0001:00010ECA  9729 0001:00010ED8  9732 0001:00010EE0
  9733 0001:00010EEA  9734 0001:00010EF8  9737 0001:00010F00  9738 0001:00010F0A
  9739 0001:00010F1F  9742 0001:00010F24  9743 0001:00010F27  9744 0001:00010F2E
  9747 0001:00010F30  9748 0001:00010F3A  9749 0001:00010F4F  9752 0001:00010F54
  9753 0001:00010F57  9754 0001:00010F5E  9757 0001:00010F60  9758 0001:00010F6A
  9759 0001:00010F78  9762 0001:00010F80  9763 0001:00010F83  9764 0001:00010F8A
  9767 0001:00010F8C  9768 0001:00010F93  9769 0001:00010F9F  9772 0001:00010FA4
  9773 0001:00010FB0  9774 0001:00010FB4  9775 0001:00010FD3  9776 0001:00010FDA
  9784 0001:00010FF0  9785 0001:00011019  9786 0001:00011023  9787 0001:00011064
  9791 0001:000110A8  9792 0001:000110C4  9793 0001:000110F8  9796 0001:00011130
  9797 0001:0001113A  9798 0001:00011148  9801 0001:00011150  9802 0001:0001115A
  9803 0001:0001116F  9808 0001:00011174  9809 0001:00011183  9810 0001:0001118D
  9811 0001:0001119F  9814 0001:000111A8  9815 0001:000111B2  9816 0001:000111C1
  9819 0001:000111C8  9820 0001:000111D2  9821 0001:000111E0  9824 0001:000111E8
  9825 0001:000111F2  9826 0001:00011200  9829 0001:00011208  9830 0001:00011212
  9831 0001:00011227  9834 0001:0001122C  9835 0001:00011236  9836 0001:00011244
  9839 0001:0001124C  9840 0001:00011256  9841 0001:0001126B  9844 0001:00011270
  9845 0001:0001127A  9846 0001:00011288  9849 0001:00011290  9850 0001:0001129A
  9851 0001:000112AF  9854 0001:000112B4  9855 0001:000112BE  9856 0001:000112D3
  9859 0001:000112D8  9860 0001:000112E2  9861 0001:000112F7  9864 0001:000112FC
  9865 0001:000112FF  9866 0001:00011306  9869 0001:00011308  9870 0001:00011312
  9871 0001:00011320  9874 0001:00011328  9875 0001:0001132F  9876 0001:0001133B
  9881 0001:00011340  9882 0001:0001134C  9883 0001:00011356  9884 0001:00011366
  9887 0001:0001136C  9888 0001:00011373  9889 0001:0001137F  9892 0001:00011384
  9893 0001:0001138B  9894 0001:00011397  9897 0001:0001139C  9898 0001:000113A3
  9899 0001:000113AF  9902 0001:000113B4  9903 0001:000113D0  9904 0001:00011411
  9907 0001:00011454  9908 0001:0001145B  9909 0001:00011467  9915 0001:0001146C
  9916 0001:0001147B  9917 0001:00011485  9918 0001:0001148F  9919 0001:000114A3
  9924 0001:000114AC  9925 0001:000114B8  9926 0001:000114C2  9927 0001:000114D2
  9930 0001:000114D8  9931 0001:000114E4  9932 0001:000114E8  9933 0001:00011507
  9934 0001:0001150E  9939 0001:00011524  9940 0001:00011539  9941 0001:00011547
  9942 0001:0001154A  9943 0001:00011552  9948 0001:00011570  9953 0001:00011574
  9954 0001:0001157B  9955 0001:00011587  9958 0001:0001158C  9959 0001:00011593
  9960 0001:0001159F  9963 0001:000115A4  9964 0001:000115A7  9965 0001:000115AE
  9968 0001:000115B0  9969 0001:000115BA  9970 0001:000115CF  9973 0001:000115D4
  9974 0001:000115DE  9975 0001:000115F3  9978 0001:000115F8  9979 0001:000115FB
  9980 0001:00011602  9983 0001:00011604  9984 0001:0001160E  9985 0001:00011623
  9988 0001:00011628  9989 0001:00011632  9990 0001:00011640  9993 0001:00011648
  9994 0001:00011654  9995 0001:00011658  9996 0001:00011677  9997 0001:0001167E
 10003 0001:00011694 10004 0001:000116AC 10005 0001:000116B5 10006 0001:000116BF
 10009 0001:000116DC 10010 0001:000116E5 10011 0001:000116EE 10012 0001:000116F8
 10019 0001:000116FC 10020 0001:0001170B 10021 0001:00011715 10022 0001:00011727
 10025 0001:00011730 10026 0001:0001173A 10027 0001:00011749 10030 0001:00011750
 10031 0001:0001175A 10032 0001:00011768 10035 0001:00011770 10036 0001:00011773
 10037 0001:0001177A 10040 0001:0001177C 10041 0001:00011786 10042 0001:00011794
 10045 0001:0001179C 10046 0001:000117A6 10047 0001:000117B5 10052 0001:000117BC
 10053 0001:000117C8 10054 0001:000117D2 10055 0001:000117DD 10058 0001:000117E4
 10059 0001:000117E7 10060 0001:000117EF 10065 0001:000117F4 10066 0001:00011800
 10067 0001:0001180A 10068 0001:00011815 10071 0001:0001181C 10072 0001:00011828
 10073 0001:0001182C 10074 0001:0001184B 10075 0001:00011852 10863 0001:00011868
 10864 0001:0001187D 10865 0001:0001188B 10866 0001:00011896 10867 0001:0001189E
 10871 0001:000118BC 10872 0001:000118CA 10873 0001:000118CC 10877 0001:000118D0
 10878 0001:000118D3 10879 0001:000118D5 10886 0001:000118DC 10887 0001:000118F4
 10888 0001:000118FE 10889 0001:00011909 10893 0001:00011928 10894 0001:0001193F
 10895 0001:00011945 10896 0001:00011960 10897 0001:00011962 10901 0001:0001196C
 10902 0001:00011970 10903 0001:00011976 10904 0001:00011988 10905 0001:0001198A
 10941 0001:00011990 10942 0001:000119A5 10943 0001:000119B3 10945 0001:000119B6
 10946 0001:000119BE 10947 0001:000119C6 10948 0001:000119CE 10949 0001:000119D6
 10950 0001:000119DE 10951 0001:000119E6 10952 0001:000119EE 10953 0001:000119F6
 10954 0001:000119FE 10955 0001:00011A06 10956 0001:00011A0E 10957 0001:00011A16
 10958 0001:00011A1E 10959 0001:00011A26 10961 0001:00011A2E 10964 0001:00011A4C
 10965 0001:00011A52 10966 0001:00011A59 10969 0001:00011A5C 10970 0001:00011A62
 10971 0001:00011A69 10974 0001:00011A6C 10975 0001:00011A72 10976 0001:00011A79
 10979 0001:00011A7C 10980 0001:00011A82 10981 0001:00011A89 10984 0001:00011A8C
 10985 0001:00011A92 10986 0001:00011A99 10989 0001:00011A9C 10990 0001:00011AA2
 10991 0001:00011AA9 10994 0001:00011AAC 10995 0001:00011AB2 10996 0001:00011AB9
 10999 0001:00011ABC 11000 0001:00011AC2 11001 0001:00011AC9 11004 0001:00011ACC
 11005 0001:00011AD2 11006 0001:00011AD9 11009 0001:00011ADC 11010 0001:00011AE2
 11011 0001:00011AE9 11014 0001:00011AEC 11015 0001:00011AF2 11016 0001:00011AF9
 11019 0001:00011AFC 11020 0001:00011B02 11021 0001:00011B09 11024 0001:00011B0C
 11025 0001:00011B12 11026 0001:00011B19 11029 0001:00011B1C 11030 0001:00011B22
 11031 0001:00011B29 11034 0001:00011B2C 11035 0001:00011B32 11036 0001:00011B39
 11039 0001:00011B3C 11040 0001:00011B42 11041 0001:00011B49 11046 0001:00011B4C
 11047 0001:00011B61 11048 0001:00011B6F 11050 0001:00011B72 11051 0001:00011B7A
 11052 0001:00011B82 11053 0001:00011B8A 11054 0001:00011B92 11056 0001:00011B9A
 11061 0001:00011BB8 11066 0001:00011BBC 11072 0001:00011BC0 11073 0001:00011BC3
 11074 0001:00011BC5 11078 0001:00011BCC 11079 0001:00011BCE 11083 0001:00011BD0
 11084 0001:00011BD2 11090 0001:00011BD4 11091 0001:00011BE9 11092 0001:00011BF7
 11094 0001:00011BFA 11095 0001:00011C02 11096 0001:00011C0A 11098 0001:00011C12
 11102 0001:00011C30 11104 0001:00011C33 11109 0001:00011C38 11110 0001:00011C3B
 11111 0001:00011C3D 11117 0001:00011C44 11145 0001:00011C48 11146 0001:00011C5D
 11147 0001:00011C6B 11149 0001:00011C6E 11150 0001:00011C76 11151 0001:00011C7E
 11152 0001:00011C86 11153 0001:00011C8E 11154 0001:00011C96 11155 0001:00011C9E
 11158 0001:00011CA6 11163 0001:00011CC4 11164 0001:00011CC7 11165 0001:00011CC9
 11170 0001:00011CD0 11171 0001:00011CD3 11172 0001:00011CD5 11177 0001:00011CDC
 11178 0001:00011CDF 11179 0001:00011CE1 11185 0001:00011CE8 11186 0001:00011CEB
 11187 0001:00011CED 11191 0001:00011CF4 11192 0001:00011CF7 11193 0001:00011CF9
 11197 0001:00011D00 11199 0001:00011D0E 11204 0001:00011D14 11206 0001:00011D17
 11211 0001:00011D1C 11212 0001:00011D31 11213 0001:00011D3F 11215 0001:00011D42
 11216 0001:00011D4A 11217 0001:00011D52 11218 0001:00011D5A 11219 0001:00011D62
 11220 0001:00011D6A 11221 0001:00011D72 11222 0001:00011D7A 11224 0001:00011D82
 11228 0001:00011DA0 11230 0001:00011DA3 11234 0001:00011DA8 11235 0001:00011DAB
 11236 0001:00011DAD 11240 0001:00011DB4 11242 0001:00011DB7 11248 0001:00011DBC
 11252 0001:00011DC0 11254 0001:00011DC3 11258 0001:00011DC8 11260 0001:00011DCB
 11266 0001:00011DD0 11271 0001:00011DD4 11272 0001:00011DD6 11277 0001:00011DD8
 11278 0001:00011DED 11279 0001:00011DFB 11281 0001:00011DFE 11282 0001:00011E06
 11283 0001:00011E0E 11285 0001:00011E16 11289 0001:00011E34 11291 0001:00011E37
 11296 0001:00011E3C 11297 0001:00011E3E 11303 0001:00011E40 11308 0001:00011E44
 11309 0001:00011E59 11310 0001:00011E67 11311 0001:00011E6A 11312 0001:00011E72
 11317 0001:00011E90 11318 0001:00011E93 11319 0001:00011E95 11324 0001:00011E9C
 11325 0001:00011EB1 11326 0001:00011EBF 11328 0001:00011EC2 11329 0001:00011ECA
 11330 0001:00011ED2 11332 0001:00011EDA 11336 0001:00011EF8 11338 0001:00011EFB
 11343 0001:00011F00 11344 0001:00011F02 11349 0001:00011F04 11350 0001:00011F06
 11355 0001:00011F08 11356 0001:00011F1D 11357 0001:00011F2B 11358 0001:00011F2E
 11360 0001:00011F36 11365 0001:00011F54 11366 0001:00011F57 11367 0001:00011F59
 11372 0001:00011F60 11373 0001:00011F75 11374 0001:00011F83 11376 0001:00011F86
 11377 0001:00011F8E 11379 0001:00011F96 11385 0001:00011FB4 11386 0001:00011FB7
 11387 0001:00011FB9 11392 0001:00011FC0 11393 0001:00011FC2 11398 0001:00011FC4
 11399 0001:00011FD9 11400 0001:00011FE7 11401 0001:00011FEA 11402 0001:00011FF2
 11407 0001:00012010 11409 0001:00012013 11414 0001:00012018 11415 0001:0001202D
 11416 0001:0001203B 11418 0001:0001203E 11419 0001:00012046 11420 0001:0001204E
 11422 0001:00012056 11426 0001:00012074 11427 0001:00012077 11428 0001:00012079
 11432 0001:00012080 11433 0001:00012083 11434 0001:00012085 11439 0001:0001208C
 11440 0001:0001208F 11441 0001:00012091 11446 0001:00012098 11447 0001:000120AD
 11448 0001:000120BB 11450 0001:000120BE 11451 0001:000120C6 11452 0001:000120CE
 11454 0001:000120D6 11458 0001:000120F4 11460 0001:000120F7 11464 0001:000120FC
 11466 0001:000120FF 11471 0001:00012104 11473 0001:00012107 11479 0001:0001210C
 11480 0001:00012121 11481 0001:0001212F 11483 0001:00012132 11484 0001:0001213A
 11485 0001:00012142 11486 0001:0001214A 11487 0001:00012152 11488 0001:0001215A
 11489 0001:00012162 11491 0001:0001216A 11495 0001:00012188 11496 0001:0001218B
 11497 0001:0001218D 11502 0001:00012194 11503 0001:00012196 11508 0001:00012198
 11509 0001:0001219A 11515 0001:0001219C 11520 0001:000121A0 11522 0001:000121A3
 11528 0001:000121A8 11534 0001:000121AC 11539 0001:000121B0 11540 0001:000121C5
 11541 0001:000121D3 11543 0001:000121D6 11544 0001:000121DE 11547 0001:000121E6
 11551 0001:00012204 11552 0001:00012207 11553 0001:00012209 11557 0001:00012210
 11558 0001:00012213 11559 0001:00012215 11564 0001:0001221C 11565 0001:0001221F
 11566 0001:00012226 11569 0001:00012228 11570 0001:0001222B 11571 0001:00012232
 11574 0001:00012234 11575 0001:00012237 11576 0001:0001223E 11580 0001:00012240
 11581 0001:0001224C 11582 0001:00012250 11583 0001:0001226F 11584 0001:00012276
 11589 0001:0001228C 11590 0001:00012296 11591 0001:000122A4 11598 0001:000122AC
 11599 0001:000122CC 11600 0001:000122D5 11601 0001:000122E3 11602 0001:000122F4
 11604 0001:00012309 11605 0001:0001231B 11606 0001:00012330 11602 0001:00012331
 11608 0001:00012341 11610 0001:00012354 11613 0001:0001237C 11614 0001:00012386
 11615 0001:00012394 11618 0001:0001239C 11619 0001:000123A6 11620 0001:000123B4
 11623 0001:000123BC 11624 0001:000123C6 11625 0001:000123D4 11628 0001:000123DC
 11629 0001:000123E6 11630 0001:000123F4 11633 0001:000123FC 11634 0001:00012406
 11635 0001:00012414 11638 0001:0001241C 11639 0001:00012426 11640 0001:00012434
 11643 0001:0001243C 11644 0001:00012443 11645 0001:0001244F 11648 0001:00012454
 11649 0001:0001245B 11650 0001:00012467 11653 0001:0001246C 11654 0001:00012473
 11655 0001:0001247F 11658 0001:00012484 11659 0001:00012490 11660 0001:00012494
 11661 0001:000124B3 11662 0001:000124BA 11667 0001:000124D0 11668 0001:000124D3
 11669 0001:000124DA 11672 0001:000124DC 11673 0001:000124DF 11674 0001:000124E6
 11677 0001:000124E8 11678 0001:000124EB 11679 0001:000124F2 11682 0001:000124F4
 11683 0001:000124FE 11684 0001:0001250C 11687 0001:00012514 11688 0001:0001251E
 11689 0001:0001252C 11692 0001:00012534 11693 0001:0001253E 11694 0001:0001254C
 11697 0001:00012554 11698 0001:00012557 11699 0001:0001255E 11702 0001:00012560
 11703 0001:00012563 11704 0001:0001256A 11707 0001:0001256C 11708 0001:00012578
 11709 0001:0001257C 11710 0001:0001259B 11711 0001:000125A2 11716 0001:000125B8
 11717 0001:000125CD 11718 0001:000125DB 11719 0001:000125E6 11724 0001:00012604
 11725 0001:00012619 11726 0001:00012627 11728 0001:0001262A 11729 0001:00012632
 11731 0001:0001263A 11736 0001:00012658 11737 0001:00012670 11738 0001:00012679
 11739 0001:00012683 11743 0001:000126A0 11744 0001:000126A4 11745 0001:000126AA
 11746 0001:000126B6 11752 0001:000126BC 11753 0001:000126F3 11754 0001:000126FC
 11755 0001:00012707 11756 0001:00012712 11760 0001:00012758 11761 0001:0001275C
 11762 0001:00012762 11763 0001:00012770 11764 0001:00012772 11768 0001:00012778
 11769 0001:00012792 11770 0001:00012798 11771 0001:000127AE 11772 0001:000127B0
 11777 0001:000127B8 11778 0001:000127CD 11779 0001:000127DB 11781 0001:000127DE
 11782 0001:000127E6 11783 0001:000127EE 11785 0001:000127F6 11939 0001:00012814
 11940 0001:0001281F 11941 0001:0001282A 11943 0001:00012849 11947 0001:00012854
 11948 0001:00012860 11949 0001:00012864 11950 0001:00012883 11951 0001:0001288A
 11957 0001:000128A0 11958 0001:000128B5 11959 0001:000128C3 11961 0001:000128C6
 11962 0001:000128CD 11964 0001:000128D4 11969 0001:000128F0 11971 0001:000128F3
 11975 0001:000128F8 11977 0001:000128FB 11982 0001:00012900 11983 0001:00012903
 11984 0001:0001290E 11988 0001:00012910 11989 0001:0001291C 11990 0001:00012920
 11991 0001:0001293F 11992 0001:00012946 12013 0001:0001295C 12014 0001:00012971
 12015 0001:0001297F 12017 0001:00012982 12018 0001:00012989 12020 0001:00012990
 12024 0001:000129AC 12025 0001:000129AF 12026 0001:000129B1 12030 0001:000129B8
 12031 0001:000129BB 12032 0001:000129BD 12037 0001:000129C4 12038 0001:000129CB
 12039 0001:000129D7 12042 0001:000129DC 12043 0001:000129DF 12044 0001:000129E6
 12047 0001:000129E8 12048 0001:000129F8 12049 0001:00012A0F 12052 0001:00012A18
 12053 0001:00012A24 12054 0001:00012A28 12055 0001:00012A47 12056 0001:00012A4E
 12059 0001:00012A64 12060 0001:00012A70 12061 0001:00012A83 12066 0001:00012A88
 12067 0001:00012A8F 12068 0001:00012A9B 12071 0001:00012AA0 12072 0001:00012AAA
 12073 0001:00012AB8 12076 0001:00012AC0 12077 0001:00012ACA 12078 0001:00012AD8
 12081 0001:00012AE0 12082 0001:00012AEA 12083 0001:00012AF8 12086 0001:00012B00
 12087 0001:00012B03 12088 0001:00012B0A 12091 0001:00012B0C 12092 0001:00012B0F
 12093 0001:00012B16 12096 0001:00012B18 12097 0001:00012B1F 12098 0001:00012B2B
 12101 0001:00012B30 12102 0001:00012B37 12103 0001:00012B43 12106 0001:00012B48
 12107 0001:00012B54 12108 0001:00012B58 12109 0001:00012B77 12110 0001:00012B7E
 12116 0001:00012B94 12117 0001:00012BB6

Line numbers for ceflib(ceflib.pas) segment .itext

 12112 0002:00000170 12113 0002:0000017C 12115 0002:00000184

Line numbers for cefgui(cefgui.pas) segment .text

   929 0001:00017CD4   930 0001:00017CE9   931 0001:00017CF3   932 0001:00017CFD
   933 0001:00017D07   934 0001:00017D0C   935 0001:00017D16   936 0001:00017D20
   937 0001:00017D25   938 0001:00017D2A   939 0001:00017D2E   940 0001:00017D38
   941 0001:00017D3D   946 0001:00017D58   947 0001:00017D70   948 0001:00017D79
   949 0001:00017D98   950 0001:00017DB7   951 0001:00017DD6   952 0001:00017DF5
   953 0001:00017E14   954 0001:00017E33   955 0001:00017E52   956 0001:00017E71
   957 0001:00017E90   958 0001:00017EAF   959 0001:00017ECE   960 0001:00017EED
   961 0001:00017F0C   962 0001:00017F2B   963 0001:00017F4A   964 0001:00017F69
   967 0001:00017F88   968 0001:00017F8E   969 0001:00017F96   970 0001:00017F9E
   971 0001:00017FA6   972 0001:00017FAE   973 0001:00017FB6   974 0001:00017FBE
   975 0001:00017FC6   976 0001:00017FCE   977 0001:00017FD6   978 0001:00017FDE
   979 0001:00017FE6   980 0001:00017FEE   981 0001:00017FF6   982 0001:00017FFE
   983 0001:00018006   984 0001:0001800E   987 0001:00018014   988 0001:0001801D
   989 0001:00018027   992 0001:0001802C   993 0001:00018035   994 0001:0001803F
   997 0001:00018044   998 0001:0001804D   999 0001:00018057  1002 0001:0001805C
  1003 0001:00018065  1004 0001:0001806F  1007 0001:00018074  1008 0001:0001807D
  1009 0001:00018087  1012 0001:0001808C  1013 0001:00018095  1014 0001:0001809F
  1017 0001:000180A4  1018 0001:000180AD  1019 0001:000180B7  1022 0001:000180BC
  1023 0001:000180C5  1024 0001:000180CF  1027 0001:000180D4  1028 0001:000180DD
  1029 0001:000180E7  1032 0001:000180EC  1033 0001:000180F5  1034 0001:000180FF
  1037 0001:00018104  1038 0001:0001810D  1039 0001:00018117  1042 0001:0001811C
  1043 0001:00018125  1044 0001:0001812F  1047 0001:00018134  1048 0001:0001813D
  1049 0001:00018147  1052 0001:0001814C  1053 0001:00018155  1054 0001:0001815F
  1057 0001:00018164  1058 0001:0001816D  1059 0001:00018177  1062 0001:0001817C
  1063 0001:00018185  1064 0001:0001818F  1069 0001:00018194  1070 0001:000181AC
  1071 0001:000181B5  1072 0001:000181BF  1075 0001:000181DC  1076 0001:000181DF
  1077 0001:000181E7  1080 0001:000181EC  1081 0001:000181EF  1082 0001:000181F7
  1088 0001:000181FC  1089 0001:00018208  1090 0001:00018213  1091 0001:0001822B
  1094 0001:00018234  1095 0001:00018237  1096 0001:0001823F  1099 0001:00018244
  1100 0001:00018247  1101 0001:0001824F  1106 0001:00018254  1107 0001:0001826C
  1108 0001:00018275  1109 0001:0001827F  1113 0001:0001829C  1114 0001:000182A3
  1115 0001:000182AF  1120 0001:000182B8  1121 0001:000182BF  1122 0001:000182D3
  1126 0001:000182DC  1127 0001:000182E0  1128 0001:000182E8  1133 0001:000182EC
  1134 0001:00018304  1135 0001:0001830D  1136 0001:00018317  1141 0001:00018334
  1142 0001:0001833B  1143 0001:0001835B  1148 0001:00018364  1149 0001:0001836B
  1150 0001:00018381  1155 0001:00018388  1156 0001:0001838F  1157 0001:000183A4
  1163 0001:000183AC  1164 0001:000183B3  1166 0001:000183CB  1170 0001:000183D4
  1171 0001:000183DB  1172 0001:000183E7  1176 0001:000183F0  1177 0001:00018407
  1178 0001:0001841C  1182 0001:00018424  1183 0001:0001842B  1184 0001:0001843B
  1189 0001:00018444  1190 0001:0001845C  1191 0001:00018465  1192 0001:0001846F
  1196 0001:0001848C  1197 0001:00018493  1198 0001:0001849F  1202 0001:000184A8
  1203 0001:000184AF  1204 0001:000184BF  1208 0001:000184C8  1209 0001:000184CF
  1210 0001:000184DF  1214 0001:000184E8  1215 0001:000184F2  1216 0001:000184FC
  1220 0001:00018504  1221 0001:0001850B  1222 0001:00018518  1226 0001:00018520
  1227 0001:00018527  1228 0001:00018533  1232 0001:0001853C  1233 0001:00018543
  1234 0001:0001854B  1238 0001:00018550  1239 0001:00018557  1240 0001:0001855F
  1245 0001:00018564  1246 0001:0001857C  1247 0001:00018585  1248 0001:0001858F
  1252 0001:000185AC  1253 0001:000185B6  1254 0001:000185C4  1258 0001:000185CC
  1259 0001:000185D6  1260 0001:000185E0  1264 0001:000185E8  1265 0001:000185F2
  1266 0001:000185FC  1271 0001:00018604  1272 0001:0001861C  1273 0001:00018625
  1274 0001:0001862F  1279 0001:0001864C  1280 0001:00018656  1282 0001:00018672
  1287 0001:0001867C  1288 0001:00018694  1289 0001:0001869D  1290 0001:000186A7
  1294 0001:000186C4  1295 0001:000186CE  1296 0001:000186DF  1300 0001:000186E8
  1301 0001:000186F2  1302 0001:000186FC  1306 0001:00018704  1307 0001:0001870E
  1308 0001:0001871B  1313 0001:00018720  1314 0001:00018738  1315 0001:00018741
  1316 0001:0001874B  1321 0001:00018768  1322 0001:0001876F  1323 0001:0001877E
  1328 0001:00018784  1329 0001:0001879C  1330 0001:000187A5  1331 0001:000187AF
  1337 0001:000187CC  1338 0001:000187D3  1340 0001:0001880A  1344 0001:00018810
  1345 0001:00018817  1346 0001:00018822  1351 0001:00018828  1352 0001:00018840
  1353 0001:00018849  1354 0001:00018853  1359 0001:00018870  1360 0001:00018877
  1361 0001:00018895  1366 0001:0001889C  1367 0001:000188B4  1368 0001:000188BD
  1369 0001:000188C7  1373 0001:000188E4  1374 0001:000188EB  1375 0001:000188FA
  1379 0001:00018900  1380 0001:00018907  1381 0001:0001891A  1386 0001:00018920
  1387 0001:00018927  1388 0001:00018942  1393 0001:00018948  1394 0001:00018960
  1395 0001:00018969  1396 0001:00018973  1400 0001:00018990  1401 0001:0001899A
  1402 0001:000189AB  1406 0001:000189B4  1407 0001:000189BE  1408 0001:000189CF
  1413 0001:000189D8  1414 0001:000189F0  1415 0001:000189F9  1416 0001:00018A03
  1420 0001:00018A20  1421 0001:00018A2A  1422 0001:00018A43  1426 0001:00018A4C
  1427 0001:00018A56  1428 0001:00018A63  1432 0001:00018A68  1433 0001:00018A72
  1434 0001:00018A7F  1438 0001:00018A84  1439 0001:00018A8E  1440 0001:00018A9B
  1445 0001:00018AA0  1446 0001:00018AAA  1447 0001:00018AC3  1451 0001:00018ACC
  1452 0001:00018AD6  1453 0001:00018AE3  1457 0001:00018AE8  1458 0001:00018AF2
  1459 0001:00018AFF  1464 0001:00018B04  1465 0001:00018B1C  1466 0001:00018B25
  1467 0001:00018B2F  1471 0001:00018B4C  1472 0001:00018B56  1473 0001:00018B67
  1477 0001:00018B70  1478 0001:00018B7A  1479 0001:00018B8B  2060 0001:00018B94
  2061 0001:00018BAC  2062 0001:00018BB5  2063 0001:00018BBF  2067 0001:00018BDC
  2068 0001:00018BE6  2069 0001:00018BF7  2074 0001:00018C00  2075 0001:00018C0A
  2076 0001:00018C1F  2081 0001:00018C28  2082 0001:00018C40  2083 0001:00018C49
  2084 0001:00018C53  2088 0001:00018C70  2089 0001:00018C7A  2090 0001:00018C8B
  2094 0001:00018C94  2095 0001:00018CA2  2096 0001:00018CB8  2098 0001:00018CC7

Line numbers for cefvcl(cefvcl.pas) segment .text

   514 0001:0001A830   515 0001:0001A833   516 0001:0001A83C   518 0001:0001A845
   519 0001:0001A84C   520 0001:0001A85A   522 0001:0001A86C   525 0001:0001A87B
   529 0001:0001A880   530 0001:0001A895   532 0001:0001A89E   533 0001:0001A8A7
   534 0001:0001A8BC   536 0001:0001A8C6   539 0001:0001A8E4   541 0001:0001A8F2
   542 0001:0001A8FC   543 0001:0001A905   545 0001:0001A912   546 0001:0001A91E
   551 0001:0001A930   552 0001:0001A945   554 0001:0001A94E   555 0001:0001A954
   557 0001:0001A985   558 0001:0001A997   560 0001:0001A9A9   561 0001:0001A9B6
   562 0001:0001A9C3   563 0001:0001A9CD   564 0001:0001A9D8   571 0001:0001AA04
   572 0001:0001AA26   574 0001:0001AA30   575 0001:0001AA3F   576 0001:0001AA4C
   577 0001:0001AA53   578 0001:0001AA5D   579 0001:0001AA66   580 0001:0001AA6F
   581 0001:0001AA7A   582 0001:0001AA85   583 0001:0001AA8A   584 0001:0001AA9C
   585 0001:0001AAA6   589 0001:0001AAB3   590 0001:0001AAE9   593 0001:0001AAFA
   596 0001:0001AB20   597 0001:0001AB26   598 0001:0001AB2D   599 0001:0001AB34
   602 0001:0001AB38   603 0001:0001AB56   604 0001:0001AB5F   605 0001:0001AB6A
   606 0001:0001AB73   607 0001:0001AB8E   608 0001:0001AB99   609 0001:0001ABA4
   610 0001:0001ABAF   611 0001:0001ABBA   612 0001:0001ABC6   616 0001:0001AC04
   617 0001:0001AC08   618 0001:0001AC12   619 0001:0001AC29   622 0001:0001AC30
   630 0001:0001AC34   631 0001:0001AC3E   632 0001:0001AC50   637 0001:0001AC54
   638 0001:0001AC59   639 0001:0001AC5D   640 0001:0001AC67   641 0001:0001AC96
   646 0001:0001ACA0   647 0001:0001ACA5   648 0001:0001ACA9   649 0001:0001ACB3
   650 0001:0001ACD7   654 0001:0001ACE4   655 0001:0001ACE9   656 0001:0001ACED
   657 0001:0001ACF7   658 0001:0001AD0E   663 0001:0001AD18   664 0001:0001AD1D
   665 0001:0001AD21   666 0001:0001AD2B   667 0001:0001AD4E   673 0001:0001AD58
   674 0001:0001AD5D   675 0001:0001AD61   676 0001:0001AD6B   678 0001:0001AD92
   683 0001:0001AD9C   684 0001:0001ADA1   685 0001:0001ADA5   686 0001:0001ADAE
   687 0001:0001ADBE   691 0001:0001ADC8   692 0001:0001ADCD   693 0001:0001ADD1
   694 0001:0001ADDB   695 0001:0001ADF1   699 0001:0001ADFC   700 0001:0001AE01
   701 0001:0001AE05   702 0001:0001AE0F   703 0001:0001AE2E   707 0001:0001AE38
   708 0001:0001AE3C   709 0001:0001AE46   710 0001:0001AE61   714 0001:0001AE68
   715 0001:0001AE6C   716 0001:0001AE76   717 0001:0001AE8D   721 0001:0001AE94
   722 0001:0001AE98   723 0001:0001AEA2   724 0001:0001AEB9   729 0001:0001AEC0
   730 0001:0001AEC5   731 0001:0001AEC9   732 0001:0001AED3   733 0001:0001AEF8
   737 0001:0001AF04   738 0001:0001AF08   739 0001:0001AF12   740 0001:0001AF25
   745 0001:0001AF28   746 0001:0001AF2D   747 0001:0001AF31   748 0001:0001AF3B
   750 0001:0001AF65   754 0001:0001AF70   755 0001:0001AF74   756 0001:0001AF7E
   757 0001:0001AF95   761 0001:0001AF9C   762 0001:0001AFA1   763 0001:0001AFA5
   764 0001:0001AFAF   765 0001:0001AFCA   769 0001:0001AFD4   770 0001:0001AFD7
   771 0001:0001AFD9   776 0001:0001AFE0   777 0001:0001AFE2   782 0001:0001AFE4
   783 0001:0001AFE6   787 0001:0001AFE8   788 0001:0001AFED   789 0001:0001AFF1
   790 0001:0001AFFB   791 0001:0001B016   795 0001:0001B020   796 0001:0001B025
   797 0001:0001B029   798 0001:0001B033   799 0001:0001B04E   803 0001:0001B058
   804 0001:0001B05D   805 0001:0001B061   806 0001:0001B06B   807 0001:0001B086
   812 0001:0001B090   813 0001:0001B095   814 0001:0001B099   815 0001:0001B0A3
   816 0001:0001B0C2   821 0001:0001B0CC   822 0001:0001B0D1   823 0001:0001B0D5
   824 0001:0001B0DF   825 0001:0001B106   830 0001:0001B110   831 0001:0001B115
   832 0001:0001B119   833 0001:0001B123   834 0001:0001B14C   838 0001:0001B158
   839 0001:0001B15D   840 0001:0001B161   841 0001:0001B16B   842 0001:0001B186
   847 0001:0001B190   848 0001:0001B195   849 0001:0001B199   850 0001:0001B1A3
   851 0001:0001B1C6   855 0001:0001B1D0   856 0001:0001B1D4   857 0001:0001B1DE
   858 0001:0001B1F1   862 0001:0001B1F4   863 0001:0001B1F9   864 0001:0001B1FD
   865 0001:0001B207   866 0001:0001B21E   870 0001:0001B228   871 0001:0001B22D
   872 0001:0001B231   873 0001:0001B23B   874 0001:0001B257   880 0001:0001B264
   884 0001:0001B268   885 0001:0001B26D   886 0001:0001B271   887 0001:0001B27B
   888 0001:0001B296   892 0001:0001B2A0   893 0001:0001B2A5   894 0001:0001B2A9
   895 0001:0001B2B3   896 0001:0001B2CE   901 0001:0001B2D8   903 0001:0001B2DB
   909 0001:0001B2E0   915 0001:0001B2E4   921 0001:0001B2E8   922 0001:0001B2ED
   923 0001:0001B2F1   924 0001:0001B2FB   927 0001:0001B33E   931 0001:0001B348
   932 0001:0001B34D   933 0001:0001B351   934 0001:0001B35B   935 0001:0001B372
   939 0001:0001B37C   940 0001:0001B381   941 0001:0001B385   942 0001:0001B38F
   943 0001:0001B3AA   947 0001:0001B3B4   948 0001:0001B3B8   949 0001:0001B3C2
   950 0001:0001B3D9   953 0001:0001B3E0   954 0001:0001B3E5   955 0001:0001B3E9
   956 0001:0001B3F3   957 0001:0001B409   962 0001:0001B414   963 0001:0001B418
   964 0001:0001B422   965 0001:0001B43D   969 0001:0001B444   970 0001:0001B45B
   971 0001:0001B465   972 0001:0001B47F   976 0001:0001B488   977 0001:0001B48C
   978 0001:0001B496   979 0001:0001B4B1   982 0001:0001B4B8   983 0001:0001B4BD
   984 0001:0001B4C1   985 0001:0001B4CB   986 0001:0001B4E1   990 0001:0001B4EC
   991 0001:0001B4F1   992 0001:0001B4F5   993 0001:0001B4FF   994 0001:0001B516
   998 0001:0001B520   999 0001:0001B527  1000 0001:0001B52B  1001 0001:0001B535
  1002 0001:0001B552  1006 0001:0001B55C  1007 0001:0001B561  1008 0001:0001B565
  1009 0001:0001B56F  1010 0001:0001B58A  1014 0001:0001B594  1015 0001:0001B598
  1016 0001:0001B5A2  1017 0001:0001B5B5  1021 0001:0001B5B8  1022 0001:0001B5BD
  1023 0001:0001B5C1  1024 0001:0001B5CB  1025 0001:0001B5E2  1029 0001:0001B5EC
  1030 0001:0001B5F1  1031 0001:0001B5F5  1032 0001:0001B5FF  1033 0001:0001B616
  1036 0001:0001B620  1037 0001:0001B62C  1038 0001:0001B648  1039 0001:0001B66B
  1040 0001:0001B68E  1041 0001:0001B6B1  1042 0001:0001B6D4  1043 0001:0001B6F7
  1044 0001:0001B71A  1045 0001:0001B726  1046 0001:0001B732  1047 0001:0001B73E
  1048 0001:0001B74A  1049 0001:0001B757  1050 0001:0001B777  1052 0001:0001B7A0
  1053 0001:0001B7AD  1054 0001:0001B7BA  1055 0001:0001B7C7  1056 0001:0001B7D3
  1057 0001:0001B7E0  1058 0001:0001B7ED  1059 0001:0001B7FA  1060 0001:0001B807
  1061 0001:0001B814  1062 0001:0001B821  1063 0001:0001B82E  1064 0001:0001B83B
  1065 0001:0001B848  1066 0001:0001B855  1067 0001:0001B862  1068 0001:0001B86F
  1069 0001:0001B87F  1070 0001:0001B88F  1071 0001:0001B89F  1072 0001:0001B8AF
  1073 0001:0001B8BF  1074 0001:0001B8CF  1075 0001:0001B8DF  1076 0001:0001B8EF
  1077 0001:0001B8FF  1078 0001:0001B90F  1079 0001:0001B91F  1080 0001:0001B92F
  1081 0001:0001B93F  1082 0001:0001B94F  1083 0001:0001B95F  1084 0001:0001B96F
  1085 0001:0001B97F  1086 0001:0001B98F  1087 0001:0001B99F  1088 0001:0001B9AF
  1089 0001:0001B9BF  1090 0001:0001B9CF  1095 0001:0001BA90  1096 0001:0001BAA9
  1097 0001:0001BAB0  1099 0001:0001BAB9  1100 0001:0001BAC7  1101 0001:0001BACD
  1103 0001:0001BAD7  1106 0001:0001BAFC  1107 0001:0001BB02  1108 0001:0001BB09
  1109 0001:0001BB16  1112 0001:0001BB1C  1113 0001:0001BB25  1115 0001:0001BB37
  1116 0001:0001BB42  1117 0001:0001BB54  1118 0001:0001BB66  1119 0001:0001BB6E
  1121 0001:0001BB79  1122 0001:0001BB80  1124 0001:0001BB89  1131 0001:0001BB90
  1132 0001:0001BBAD  1133 0001:0001BBB4  1135 0001:0001BBBE  1136 0001:0001BBCC
  1138 0001:0001BBDF  1139 0001:0001BBE9  1140 0001:0001BBF3  1141 0001:0001BC01
  1145 0001:0001BC3B  1149 0001:0001BC4C  1152 0001:0001BC70  1153 0001:0001BC79
  1156 0001:0001BC9A  1157 0001:0001BCB2  1158 0001:0001BCCB  1161 0001:0001BCD6
  1162 0001:0001BCE5  1164 0001:0001BCF0  1165 0001:0001BCFD  1166 0001:0001BD06
  1168 0001:0001BD11  1170 0001:0001BD1A  1172 0001:0001BD23  1219 0001:0001BD28

Line numbers for cefvcl(cefvcl.pas) segment .itext

  1212 0002:00000188  1215 0002:00000192

Line numbers for Constant(Constant.pas) segment .text

    20 0001:00000000

Line numbers for DialogIntf(DialogIntf.pas) segment .text

    30 0001:00000000

Line numbers for EncdDecdIntf(EncdDecdIntf.pas) segment .text

    27 0001:00000000

Line numbers for AuthoritySvrIntf(AuthoritySvrIntf.pas) segment .text

    28 0001:00000000

Line numbers for LoginIntf(LoginIntf.pas) segment .text

    21 0001:00000000

Line numbers for SysSvc(Core\SysSvc.pas) segment .text

    33 0001:0001BF78    34 0001:0001BF7E    35 0001:0001BF87    38 0001:0001BF8C
    39 0001:0001BF94    40 0001:0001BF9F    41 0001:0001BFA3    42 0001:0001BFAC
    46 0001:0001BFB4    47 0001:0001BFD0    48 0001:0001BFD5    49 0001:0001BFE5
    51 0001:0001BFE9    52 0001:0001BFF8    54 0001:0001BFFE    55 0001:0001C00B
    58 0001:0001C00D    64 0001:0001C034

Line numbers for SysSvc(Core\SysSvc.pas) segment .itext

    60 0002:0000021C    62 0002:00000226

Line numbers for UFrmException(UFrmException.pas) segment .text

    50 0001:0001C47C    51 0001:0001C47F    54 0001:0001C480    55 0001:0001C483
    56 0001:0001C48A    59 0001:0001C48C    60 0001:0001C495    61 0001:0001C4A2
    64 0001:0001C4A8    65 0001:0001C4B1    66 0001:0001C4BE    69 0001:0001C4C4
    70 0001:0001C4CD    71 0001:0001C4DA    74 0001:0001C4E0    75 0001:0001C4E3
    76 0001:0001C4EE    79 0001:0001C4F0    80 0001:0001C4F3    81 0001:0001C4FE
    84 0001:0001C500    85 0001:0001C503    86 0001:0001C50E    88 0001:0001C517

Line numbers for ceffilescheme(ceffilescheme.pas) segment .text

    55 0001:0001C6F8    56 0001:0001C716    57 0001:0001C71F    60 0001:0001C72A
    61 0001:0001C731    62 0001:0001C759    63 0001:0001C764    64 0001:0001C786
    65 0001:0001C79A    58 0001:0001C79D    67 0001:0001C7A5    82 0001:0001CA04
    83 0001:0001CA27    84 0001:0001CA31    85 0001:0001CA3D    86 0001:0001CA49
    87 0001:0001CA4F    98 0001:0001CA70    99 0001:0001CA7C   100 0001:0001CAB5
   101 0001:0001CAFD   102 0001:0001CB45   103 0001:0001CB8D   104 0001:0001CBD2
   105 0001:0001CC17   106 0001:0001CC23   113 0001:0001CCF8   114 0001:0001CD01
   115 0001:0001CD0E   116 0001:0001CD1B   118 0001:0001CD4D   119 0001:0001CD5A
   124 0001:0001CD60   125 0001:0001CD86   126 0001:0001CD91   127 0001:0001CD9A
   128 0001:0001CDF1   131 0001:0001CE94   132 0001:0001CE97   134 0001:0001CEA2
   135 0001:0001CEAD   136 0001:0001CEBA   138 0001:0001CEBF   139 0001:0001CECA
   140 0001:0001CED7   141 0001:0001CEDC   147 0001:0001CEE0   148 0001:0001CF01
   149 0001:0001CF10   150 0001:0001CF2B   151 0001:0001CF35   154 0001:0001CF43
   155 0001:0001CF4D   157 0001:0001CF52   158 0001:0001CF53   159 0001:0001CF58
   162 0001:0001CF5D   163 0001:0001CF60   164 0001:0001CF61   165 0001:0001CF6E
   168 0001:0001CFAB   169 0001:0001CFB3   174 0001:0001CFB5   176 0001:0001CFB7
   177 0001:0001CFB8   152 0001:0001CFB9   179 0001:0001CFC0   180 0001:0001CFD8
   188 0001:0001D01C   189 0001:0001D03C   190 0001:0001D045   191 0001:0001D047
   194 0001:0001D049   195 0001:0001D06F   196 0001:0001D086   197 0001:0001D08B
   199 0001:0001D090   200 0001:0001D09A   201 0001:0001D09F   202 0001:0001D0A4
   204 0001:0001D0AE   205 0001:0001D0B3   207 0001:0001D0B5   208 0001:0001D0B7
   211 0001:0001D0C6   212 0001:0001D0CC   213 0001:0001D0D1   218 0001:0001D0D8
   222 0001:0001D0E1   223 0001:0001D0F0   226 0001:0001D0F7   236 0001:0001D129
   192 0001:0001D12C   239 0001:0001D131   240 0001:0001D13B   245 0001:0001D170
   246 0001:0001D173   248 0001:0001D178   252 0001:0001D17C   253 0001:0001D191
   254 0001:0001D1A6   255 0001:0001D1AB   258 0001:0001D1C8   259 0001:0001D1D6
   260 0001:0001D1DD   261 0001:0001D1E2   262 0001:0001D1EE   266 0001:0001D200
   267 0001:0001D20C   268 0001:0001D216   269 0001:0001D220   270 0001:0001D22A
   271 0001:0001D236   287 0001:0001D240   289 0001:0001D256   290 0001:0001D265
   294 0001:0001D298   299 0001:0001D2BC   301 0001:0001D2D2   305 0001:0001D2E1
   306 0001:0001D314   309 0001:0001D338   310 0001:0001D377   312 0001:0001D37E
   313 0001:0001D3AD   314 0001:0001D3BD   315 0001:0001D3C1   317 0001:0001D3CF
   319 0001:0001D3EA   320 0001:0001D3F4   321 0001:0001D404   323 0001:0001D40F
   324 0001:0001D421   325 0001:0001D42F   326 0001:0001D43F   327 0001:0001D467
   328 0001:0001D490   329 0001:0001D4C4   331 0001:0001D4E1   333 0001:0001D4F4
   334 0001:0001D4FD   335 0001:0001D50D   337 0001:0001D52C   339 0001:0001D53F
   340 0001:0001D549   341 0001:0001D559   342 0001:0001D56D   343 0001:0001D57B
   344 0001:0001D59D   345 0001:0001D5AF   346 0001:0001D5CE   347 0001:0001D5DC
   349 0001:0001D5FA   352 0001:0001D60D   354 0001:0001D657   357 0001:0001D687
   358 0001:0001D699   359 0001:0001D6D2   360 0001:0001D6E1   362 0001:0001D6EC
   364 0001:0001D6FC   365 0001:0001D70D   364 0001:0001D733   367 0001:0001D736
   368 0001:0001D745   370 0001:0001D762   374 0001:0001D775   375 0001:0001D77F
   378 0001:0001D78F   380 0001:0001D7A1   382 0001:0001D7CE   383 0001:0001D7DE
   386 0001:0001D7ED   387 0001:0001D7F8   388 0001:0001D803   392 0001:0001DB40
   393 0001:0001DB4D   394 0001:0001DB5F   395 0001:0001DB61   397 0001:0001DB6F

Line numbers for UFrmMain(UFrmMain.pas) segment .text

   345 0001:00022694   346 0001:000226C0   350 0001:000226CE   352 0001:000226E3
   353 0001:000226E5   355 0001:000226EA   358 0001:00022702   360 0001:00022709
   364 0001:00022717   365 0001:00022735   367 0001:0002273C   371 0001:0002274A
   373 0001:00022764   377 0001:0002278D   380 0001:000227C1   382 0001:000227C8
   385 0001:000227D6   387 0001:000227F3   389 0001:000227FA   391 0001:00022808
   392 0001:00022812   393 0001:0002281C   395 0001:00022832   396 0001:0002285A
   398 0001:0002287C   400 0001:00022883   403 0001:00022895   407 0001:000228B3
   409 0001:000228C4   413 0001:000228C8   415 0001:000228E7   417 0001:0002290D
   419 0001:00022911   420 0001:00022926   422 0001:0002292B   425 0001:00022930
   426 0001:00022942   428 0001:0002295C   430 0001:00022997   432 0001:000229A9
   434 0001:000229C3   436 0001:000229FE   438 0001:00022A10   441 0001:00022A2A
   442 0001:00022A65   444 0001:00022A77   448 0001:00022AC5   450 0001:00022B06
   452 0001:00022B18   454 0001:00022B38   456 0001:00022B82   458 0001:00022B94
   461 0001:00022BB4   462 0001:00022BFE   464 0001:00022C10   466 0001:00022C30
   468 0001:00022C7A   470 0001:00022C8C   474 0001:00022D0C   476 0001:00022D56
   478 0001:00022D68   486 0001:00022E54   488 0001:00022E9E   490 0001:00022EB0
   494 0001:00022F10   496 0001:00022F5A   498 0001:00022F69   500 0001:00022F89
   502 0001:00022FD3   506 0001:00022FE0   508 0001:00022FE7   510 0001:00022FF5
   511 0001:00023007   512 0001:0002301C   514 0001:00023023   516 0001:00023035
   518 0001:00023053   520 0001:00023072   522 0001:00023084   524 0001:000230CE
   528 0001:000230E2   530 0001:00023101   532 0001:00023113   534 0001:0002315D
   537 0001:00023171   539 0001:00023190   542 0001:000231A2   543 0001:000231EC
   547 0001:00023200   549 0001:0002321F   552 0001:00023231   553 0001:0002327B
   557 0001:0002328F   559 0001:000232AE   561 0001:000232C0   563 0001:0002330A
   567 0001:0002331E   569 0001:0002333D   572 0001:0002334F   573 0001:00023399
   577 0001:000233AD   579 0001:000233CC   581 0001:000233DE   583 0001:00023428
   587 0001:0002343C   589 0001:0002345B   591 0001:0002346D   593 0001:000234B7
   597 0001:000234CB   599 0001:000234EA   601 0001:000234FC   603 0001:00023546
   607 0001:0002355A   609 0001:00023579   611 0001:0002358B   613 0001:000235D5
   617 0001:000235E9   619 0001:00023608   621 0001:00023616   623 0001:00023660
   629 0001:0002366F   630 0001:00023681   632 0001:00023688   634 0001:0002369A
   636 0001:000236B8   638 0001:000236D7   640 0001:00023721   642 0001:00023733
   644 0001:00023752   646 0001:0002379C   648 0001:000237AE   651 0001:000237CD
   652 0001:00023817   654 0001:00023829   656 0001:00023848   658 0001:00023892
   660 0001:000238A4   662 0001:000238C3   664 0001:0002390D   666 0001:0002391F
   669 0001:0002393E   670 0001:00023988   672 0001:0002399A   674 0001:000239B9
   676 0001:00023A03   678 0001:00023A15   680 0001:00023A34   682 0001:00023A7E
   684 0001:00023A90   686 0001:00023AAF   688 0001:00023AF9   690 0001:00023B0B
   692 0001:00023B2A   694 0001:00023B74   696 0001:00023B83   698 0001:00023BA2
   700 0001:00023BEC   704 0001:00023BF9   705 0001:00023C0B   708 0001:00023C0F
   709 0001:00023C11   712 0001:00024A90   713 0001:00024A93   714 0001:00024AA4
   800 0001:00024AC0   801 0001:00024AFF   802 0001:00024B0B   804 0001:00024B15
   805 0001:00024B25   806 0001:00024B2F   807 0001:00024B38   808 0001:00024B41
   809 0001:00024B4C   811 0001:00024B52   812 0001:00024B6E   813 0001:00024B7E
   815 0001:00024B8F   819 0001:00024B9E   820 0001:00024BA8   824 0001:00024BDC
   826 0001:00024BE4   829 0001:00024C04   831 0001:00024C0C   834 0001:00024C2C
   836 0001:00024C34   839 0001:00024C5C   842 0001:00024C62   844 0001:00024C6E
   845 0001:00024C7B   846 0001:00024C92   849 0001:00024C9D   851 0001:00024CA9
   852 0001:00024CB6   853 0001:00024CCD   855 0001:00024CD8   857 0001:00024CE4
   858 0001:00024CF1   859 0001:00024D08   861 0001:00024D13   863 0001:00024D22
   864 0001:00024D2F   865 0001:00024D46   867 0001:00024D51   869 0001:00024D5D
   870 0001:00024D6A   871 0001:00024D81   873 0001:00024D8C   875 0001:00024D98
   876 0001:00024DA5   877 0001:00024DBC   879 0001:00024DC7   881 0001:00024DD3
   882 0001:00024DE0   883 0001:00024DF7   885 0001:00024E02   887 0001:00024E11
   888 0001:00024E1E   889 0001:00024E35   891 0001:00024E40   893 0001:00024E4C
   894 0001:00024E59   895 0001:00024E70   897 0001:00024E78   899 0001:00024E84
   900 0001:00024E91   901 0001:00024EA8   903 0001:00024EB0   905 0001:00024EBC
   906 0001:00024EC9   907 0001:00024EE0   910 0001:00024EE6   917 0001:00024F28
   918 0001:00024F48   920 0001:00024F5C   921 0001:00024F68   923 0001:00024F6D
   925 0001:00024F88   933 0001:00025059   934 0001:00025066   937 0001:00025070
   923 0001:00025071   938 0001:00025078   940 0001:0002509A   947 0001:000250A2
   948 0001:000250AE   966 0001:000251E8   967 0001:0002522B   968 0001:00025230
   972 0001:00025232   973 0001:00025236   975 0001:0002525B   976 0001:00025272
   978 0001:0002528E   981 0001:000252CF   984 0001:000252F4   985 0001:00025302
   986 0001:00025306   988 0001:0002530B   991 0001:00025349   992 0001:00025357
   993 0001:0002535B   996 0001:00025360   997 0001:0002536D   999 0001:00025382
  1002 0001:000253C1  1005 0001:000253E4  1006 0001:000253F0  1007 0001:000253F4
  1009 0001:000253F6  1012 0001:00025432  1013 0001:0002543E  1014 0001:00025442
  1017 0001:00025444  1019 0001:0002544A   997 0001:0002544B  1020 0001:00025452
  1022 0001:00025458   976 0001:0002545B  1023 0001:00025464  1025 0001:0002546A
   973 0001:0002546D  1058 0001:00025476  1064 0001:000254A4  1065 0001:000254AD
  1066 0001:000254B2  1068 0001:000254C3  1070 0001:000254DA  1071 0001:000254E6
  1073 0001:000254E8  1075 0001:000254FA  1076 0001:00025510  1081 0001:00025516
  1066 0001:00025517  1082 0001:0002551A  1084 0001:00025524  1085 0001:0002552B
  1087 0001:00025531  1088 0001:0002553A  1090 0001:0002553D  1091 0001:0002554D
  1096 0001:00025550  1097 0001:0002555E  1098 0001:00025563  1100 0001:0002557A
  1102 0001:0002558F  1103 0001:0002559F  1105 0001:000255A1  1098 0001:000255A2
  1106 0001:000255A5  1109 0001:000255B0  1110 0001:000255B8  1112 0001:000255C8
  1114 0001:000255D5  1116 0001:000255ED  1118 0001:00025606  1121 0001:0002560C
  1122 0001:00025612  1123 0001:0002561D  1128 0001:00025624  1131 0001:00025628
  1132 0001:0002562E  1133 0001:0002563B  1134 0001:00025648  1143 0001:0002564C
  1144 0001:0002566D  1145 0001:00025675  1146 0001:0002567F  1147 0001:0002568E
  1148 0001:0002569D  1149 0001:000256A7  1150 0001:000256B6  1151 0001:000256C5
  1153 0001:000256D0  1154 0001:000256E0  1155 0001:000256EA  1157 0001:000256F4
  1161 0001:00025705  1162 0001:00025710  1163 0001:0002571E  1164 0001:00025752
  1165 0001:00025766  1170 0001:0002576D  1171 0001:00025785  1172 0001:00025794
  1173 0001:000257B2  1174 0001:000257C6  1175 0001:000257E7  1178 0001:00025823
  1182 0001:00025835  1184 0001:00025850  1186 0001:00025894  1190 0001:000258B1
  1193 0001:000258C1  1194 0001:000258D8  1195 0001:000258E3  1196 0001:000258EE
  1197 0001:000258F9  1198 0001:00025904  1199 0001:00025926  1202 0001:00025B14
  1203 0001:00025B1C  1204 0001:00025B23  1205 0001:00025B2A  1207 0001:00025B3A
  1209 0001:00025B47  1212 0001:00025B5F  1215 0001:00025B64  1216 0001:00025B67
  1217 0001:00025B6C  1223 0001:00025B70  1224 0001:00025B79  1225 0001:00025B86
  1226 0001:00025B8D  1228 0001:00025B97  1229 0001:00025B9E  1232 0001:00025BAF
  1234 0001:00025BBE  1239 0001:00025BC4  1240 0001:00025BCD  1242 0001:00025BD7
  1243 0001:00025BDE  1246 0001:00025BEF  1248 0001:00025BFA  1255 0001:00025C00
  1256 0001:00025C1B  1258 0001:00025C24  1259 0001:00025C2B  1261 0001:00025C30
  1263 0001:00025C3D  1264 0001:00025C44  1265 0001:00025C4B  1267 0001:00025C59
  1268 0001:00025C60  1271 0001:00025C71  1273 0001:00025C81  1275 0001:00025C8E
  1277 0001:00025C97  1278 0001:00025CAE  1280 0001:00025CC8  1281 0001:00025CD0
  1283 0001:00025CDF  1285 0001:00025CE8  1286 0001:00025CFF  1288 0001:00025D19
  1289 0001:00025D21  1293 0001:00025D30  1296 0001:00025D48  1302 0001:00025D68
  1303 0001:00025D85  1304 0001:00025D9C  1305 0001:00025DAC  1319 0001:00025DB9
  1321 0001:00025DEB  1322 0001:00025E27  1335 0001:00025E34  1337 0001:00025E41
  1338 0001:00025E49  1339 0001:00025E51  1340 0001:00025E59  1341 0001:00025E61
  1342 0001:00025E69  1343 0001:00025E71  1344 0001:00025E79  1345 0001:00025E81
  1346 0001:00025E89  1347 0001:00025E91  1348 0001:00025E99  1350 0001:00025EA1
  1352 0001:00025EAD  1353 0001:00025EC0  1355 0001:00025ED3  1357 0001:00025EE6
  1358 0001:00025F11  1355 0001:00025F12  1359 0001:00025F15  1378 0001:00025F94
  1401 0001:00025F98  1402 0001:00025FA1  1403 0001:00025FA6  1405 0001:00025FB7
  1407 0001:00025FD0  1408 0001:00025FDC  1410 0001:00025FDE  1412 0001:00025FF0
  1413 0001:00026006  1418 0001:0002600C  1403 0001:0002600D  1419 0001:00026010
  1421 0001:0002601C  1422 0001:00026028  1423 0001:0002603A  1425 0001:00026044
  1426 0001:00026050  1427 0001:00026057  1429 0001:00026060  1433 0001:00026068
  1446 0001:00026079  1449 0001:00026090  1450 0001:000260AB  1452 0001:000260E1
  1453 0001:000260EB  1454 0001:00026113  1455 0001:00026120  1456 0001:0002612D
  1457 0001:0002613A  1458 0001:0002614A  1460 0001:0002616C  1464 0001:00026188
  1466 0001:0002618D  1469 0001:000261AF  1471 0001:000261BF  1473 0001:000261C8
  1477 0001:000261DA  1479 0001:000261EA  1480 0001:000261FA  1482 0001:00026222
  1487 0001:00026320  1488 0001:00026341  1489 0001:0002634A  1490 0001:0002635B
  1493 0001:0002639D  1495 0001:000263D3  1496 0001:000263DB  1498 0001:000263E8
  1501 0001:00026454  1502 0001:0002646F  1504 0001:000264A5  1505 0001:000264AF
  1506 0001:000264D7  1507 0001:000264E4  1508 0001:000264F1  1509 0001:000264FE
  1510 0001:0002650E  1512 0001:00026533  1516 0001:00026552  1518 0001:00026557
  1521 0001:00026579  1524 0001:00026589  1525 0001:00026599  1526 0001:000265A9
  1528 0001:000265D1  1533 0001:000266B8  1534 0001:000266D9  1535 0001:000266E2
  1536 0001:000266F3  1539 0001:00026735  1541 0001:0002676B  1542 0001:00026773
  1545 0001:00026780  1551 0001:000267E4  1552 0001:00026802  1553 0001:00026807
  1555 0001:00026835  1556 0001:00026869  1557 0001:00026877  1559 0001:0002689B
  1562 0001:000268AB  1564 0001:000268B1  1565 0001:000268C1  1567 0001:000268D6
  1569 0001:000268DC  1570 0001:000268E6  1571 0001:000268F6  1577 0001:00026908
  1580 0001:00026922  1581 0001:0002692B  1582 0001:00026941  1583 0001:0002694B
  1585 0001:00026955  1587 0001:0002695B  1590 0001:00026965  1598 0001:000269E4
  1599 0001:00026A10  1600 0001:00026A14  1602 0001:00026A32  1603 0001:00026A46
  1608 0001:00026A9D  1609 0001:00026AA1  1611 0001:00026AB9  1612 0001:00026ABD
  1613 0001:00026ACD  1614 0001:00026AE6  1616 0001:00026AF3  1618 0001:00026AF5
  1600 0001:00026AF8  1619 0001:00026B01  1626 0001:00026B30  1627 0001:00026B4F
  1628 0001:00026B5D  1632 0001:00026B91  1633 0001:00026BA9  1634 0001:00026BB8
  1635 0001:00026BD6  1636 0001:00026BEA  1637 0001:00026C0B  1642 0001:00026C7C
  1644 0001:00026C8C  1647 0001:00026D74  1648 0001:00026D77  1649 0001:00026D82
  1652 0001:00026D84  1653 0001:00026D9E  1655 0001:00026DA7  1656 0001:00026DAE
  1660 0001:00026DD2  1664 0001:00026E50  1665 0001:00026E53  1666 0001:00026E5A
  1669 0001:00026E60  1670 0001:00026E78  1672 0001:00026EAF  1676 0001:00026F04
  1677 0001:00026F1C  1679 0001:00026F53  1692 0001:00026FA8  1693 0001:00026FC6
  1694 0001:00026FC8  1695 0001:00026FD7  1697 0001:00026FEF  1698 0001:00026FFD
  1700 0001:00027009  1702 0001:0002700D  1703 0001:00027021  1704 0001:0002702B
  1706 0001:00027034  1707 0001:00027036  1695 0001:00027039  1709 0001:0002703E
  1772 0001:00027064  1775 0001:0002708E  1777 0001:00027093  1778 0001:00027098
  1780 0001:000270A6  1781 0001:000270B5  1782 0001:000270C3  1783 0001:000270DF
  1784 0001:000270E9  1785 0001:000270F6  1786 0001:00027109  1792 0001:00027112
  1794 0001:00027122  1796 0001:00027132  1802 0001:0002719C  1803 0001:000271AC
  1806 0001:000271C3  1808 0001:000271CD  1809 0001:000271D1  1810 0001:000271DD
  1811 0001:000271EA  1813 0001:000271EE  1815 0001:000271F6  1816 0001:000271FF
  1819 0001:00027208  1820 0001:00027214  1821 0001:0002722E  1822 0001:00027248
  1826 0001:00027250  1827 0001:0002725D  1829 0001:00027271  1830 0001:00027284
  1831 0001:00027297  1832 0001:000272AC  1834 0001:000272C5  1837 0001:000272D0
  1838 0001:000272EB  1840 0001:00027321  1841 0001:0002732B  1842 0001:00027353
  1843 0001:00027360  1844 0001:0002736D  1845 0001:0002737A  1846 0001:0002738A
  1848 0001:000273AC  1852 0001:000273C8  1854 0001:000273CD  1855 0001:000273DD
  1856 0001:000273ED  1858 0001:00027415  1863 0001:00027500  1864 0001:00027521
  1865 0001:0002752A  1866 0001:0002753B  1869 0001:0002757D  1871 0001:000275B3
  1872 0001:000275BB  1875 0001:000275C8  1880 0001:00027630  1881 0001:0002764E
  1882 0001:00027657  1883 0001:00027667  1890 0001:000276BC  1891 0001:000276E4
  1892 0001:000276F1  1898 0001:000276FE  1901 0001:0002776C  1902 0001:00027786
  1903 0001:000277AA  1906 0001:00027828  1907 0001:00027842  1910 0001:000278D0
  1915 0001:00027960  1916 0001:00027969  1917 0001:00027972  1918 0001:00027983
  1920 0001:0002799B  1921 0001:000279A2  1923 0001:000279B4  1925 0001:000279C6
  1926 0001:000279D3  1927 0001:000279E3  1928 0001:000279F0  1929 0001:00027A04
  1934 0001:00027A24  1937 0001:00027A2C  1938 0001:00027A47  1940 0001:00027A7D
  1941 0001:00027A87  1942 0001:00027AAF  1943 0001:00027ABC  1944 0001:00027AC9
  1945 0001:00027AD6  1946 0001:00027AE6  1948 0001:00027B0B  1952 0001:00027B2A
  1954 0001:00027B2F  1957 0001:00027B51  1959 0001:00027B61  1960 0001:00027B71
  1961 0001:00027B81  1963 0001:00027BA9  1968 0001:00027CA4  1969 0001:00027CC5
  1970 0001:00027CCE  1971 0001:00027CDF  1975 0001:00027D21  1977 0001:00027D57
  1978 0001:00027D5F  1981 0001:00027D6C  1986 0001:00027DE0  1991 0001:00027DE4
  1994 0001:00027DE8  1995 0001:00027E03  1997 0001:00027E39  1998 0001:00027E43
  1999 0001:00027E6B  2000 0001:00027E78  2001 0001:00027E85  2002 0001:00027E92
  2003 0001:00027EA2  2005 0001:00027EC7  2009 0001:00027EE6  2011 0001:00027EEB
  2014 0001:00027F0D  2016 0001:00027F1D  2018 0001:00027F26  2022 0001:00027F38
  2024 0001:00027F48  2025 0001:00027F58  2027 0001:00027F80  2032 0001:0002807C
  2033 0001:0002809D  2034 0001:000280A6  2035 0001:000280B7  2038 0001:000280F9
  2040 0001:0002812F  2041 0001:00028137  2044 0001:00028144  2047 0001:000281B0
  2048 0001:000281CA  2050 0001:000281DB  2051 0001:000281E2  2053 0001:00028218
  2057 0001:0002822F  2058 0001:00028236  2060 0001:0002826C  2063 0001:00028281
  2067 0001:00028350  2068 0001:00028353  2069 0001:0002835A  2072 0001:00028360
  2073 0001:00028378  2074 0001:000283AF  2078 0001:00028404  2079 0001:0002841C
  2080 0001:00028453  2083 0001:000284A8  2084 0001:000284B2  2085 0001:000284B5
  2087 0001:000284B9  2088 0001:000284CA  2089 0001:000284DF  2090 0001:000284F0
  2091 0001:000284FF  2096 0001:00028508  2097 0001:00028536  2099 0001:00028547
  2100 0001:00028555  2101 0001:0002856A  2105 0001:0002859B  2106 0001:000285AA
  2111 0001:000285BD  2113 0001:000285D2  2114 0001:000285E8  2115 0001:000285F6
  2116 0001:0002860F  2117 0001:00028620  2118 0001:0002862F  2120 0001:00028642
  2121 0001:00028653  2123 0001:0002866F  2128 0001:00028683  2130 0001:00028696
  2137 0001:000287E0  2138 0001:00028802  2140 0001:0002880F  2141 0001:00028816
  2144 0001:00028838  2146 0001:0002884C  2147 0001:00028858  2149 0001:0002885D
  2151 0001:00028878  2159 0001:00028949  2160 0001:00028956  2163 0001:00028960
  2149 0001:00028961  2164 0001:00028968  2166 0001:0002898A  2168 0001:00028992
  2169 0001:0002899E  2173 0001:000289D5  2177 0001:00028B68  2178 0001:00028B6B
  2179 0001:00028B72  2182 0001:00028B78  2183 0001:00028B90  2185 0001:00028BC7
  2189 0001:00028C1C  2190 0001:00028C34  2192 0001:00028C6B  2195 0001:00028CC0
  2196 0001:00028CDB  2198 0001:00028D11  2199 0001:00028D1B  2200 0001:00028D43
  2201 0001:00028D50  2202 0001:00028D5D  2203 0001:00028D6A  2204 0001:00028D7A
  2206 0001:00028D9F  2210 0001:00028DBE  2212 0001:00028DC3  2215 0001:00028DE5
  2217 0001:00028DF5  2218 0001:00028E05  2219 0001:00028E15  2221 0001:00028E3D
  2226 0001:00028F2C  2227 0001:00028F4D  2228 0001:00028F56  2229 0001:00028F67
  2232 0001:00028FA9  2234 0001:00028FDF  2235 0001:00028FE7  2238 0001:00028FF4
  2244 0001:00029060  2262 0001:00029072  2265 0001:00029090  2266 0001:000290AE
  2268 0001:000290C3  2269 0001:000290D8  2270 0001:000290E1  2271 0001:00029112
  2273 0001:00029134  2275 0001:0002913D  2286 0001:0002915F  2289 0001:0002921C
  2290 0001:00029236  2292 0001:0002923F  2293 0001:00029246  2296 0001:0002926A
  2300 0001:000292E8  2301 0001:000292EB  2302 0001:000292F2  2305 0001:000292F8
  2306 0001:00029310  2308 0001:00029347  2312 0001:0002939C  2313 0001:000293B4
  2315 0001:000293EB  2339 0001:00029440  2341 0001:00029448  2342 0001:0002944F
  2344 0001:00029453  2345 0001:0002945A  2346 0001:0002945E  2347 0001:0002946A
  2349 0001:0002947F  2352 0001:00029484  2353 0001:0002949B  2355 0001:000294A4
  2356 0001:000294AB  2358 0001:000294C9  2363 0001:000294D0  2367 0001:00029528
  2368 0001:0002952B  2369 0001:00029532  2372 0001:00029538  2373 0001:00029550
  2374 0001:00029587  2378 0001:000295DC  2379 0001:000295F4  2380 0001:0002962B
  2383 0001:00029680  2385 0001:0002969A  2387 0001:000296A3  2388 0001:000296AA
  2392 0001:000296CE  2395 0001:0002974C  2396 0001:0002974F  2397 0001:0002975D
  2400 0001:00029760  2403 0001:00029764  2405 0001:00029774  2409 0001:0002977E
  2412 0001:00029785  2415 0001:00029788  2416 0001:000297A3  2418 0001:000297D9
  2419 0001:000297E3  2420 0001:0002980B  2421 0001:00029818  2422 0001:00029825
  2423 0001:00029832  2424 0001:00029842  2426 0001:00029867  2430 0001:00029886
  2432 0001:0002988B  2435 0001:000298AD  2437 0001:000298BD  2438 0001:000298CD
  2439 0001:000298DD  2441 0001:00029905  2446 0001:000299FC  2447 0001:00029A1D
  2448 0001:00029A26  2449 0001:00029A37  2453 0001:00029A79  2455 0001:00029AAF
  2456 0001:00029AB7  2459 0001:00029AC4  2471 0001:00029B38  2472 0001:00029B53
  2474 0001:00029B89  2475 0001:00029B93  2476 0001:00029BBB  2477 0001:00029BC8
  2478 0001:00029BD5  2479 0001:00029BE2  2480 0001:00029BF2  2482 0001:00029C17
  2486 0001:00029C36  2488 0001:00029C3B  2491 0001:00029C5D  2493 0001:00029C6D
  2494 0001:00029C7D  2495 0001:00029C8D  2497 0001:00029CB5  2502 0001:00029DA0
  2503 0001:00029DC1  2504 0001:00029DCA  2505 0001:00029DDB  2508 0001:00029E1D
  2510 0001:00029E53  2511 0001:00029E5B  2514 0001:00029E68  2517 0001:00029ECC
  2518 0001:00029ED4  2520 0001:00029EE4  2525 0001:00029EF1  2532 0001:00029F09
  2534 0001:00029F22  2537 0001:00029F28  2538 0001:00029F30  2540 0001:00029F40
  2542 0001:00029F4D  2545 0001:00029F65  2549 0001:00029F6C  2550 0001:00029F6F
  2552 0001:00029F77  2556 0001:00029F7C  2564 0001:00029F7F  2567 0001:00029F84
  2568 0001:00029F9F  2570 0001:00029FD5  2571 0001:00029FDF  2572 0001:0002A007
  2573 0001:0002A014  2574 0001:0002A021  2575 0001:0002A02E  2576 0001:0002A03E
  2578 0001:0002A060  2582 0001:0002A07C  2584 0001:0002A081  2586 0001:0002A08A
  2590 0001:0002A09C  2592 0001:0002A0AC  2593 0001:0002A0BC  2595 0001:0002A0E4
  2600 0001:0002A1D4  2601 0001:0002A1F5  2602 0001:0002A1FE  2603 0001:0002A20F
  2606 0001:0002A251  2608 0001:0002A287  2609 0001:0002A28F  2611 0001:0002A29C
  2622 0001:0002A304  2623 0001:0002A312  2625 0001:0002A322  2632 0001:0002A327
  2633 0001:0002A33F  2635 0001:0002A353  2630 0001:0002A368  2638 0001:0002A376
  2644 0001:0002A37E  2653 0001:0002A388  2656 0001:0002A398  2657 0001:0002A3A2
  2658 0001:0002A3AF  2660 0001:0002A3B5  2661 0001:0002A3BE  2663 0001:0002A3C8
  2668 0001:0002A3D6  2671 0001:0002A3E2  2696 0001:0002A3F2  2698 0001:0002A405
  2700 0001:0002A408  2701 0001:0002A412  2702 0001:0002A41F  2704 0001:0002A42C
  2705 0001:0002A438  2707 0001:0002A452  2711 0001:0002A46F  2705 0001:0002A472
  2715 0001:0002A477  2717 0001:0002A482  2718 0001:0002A48B  2720 0001:0002A490
  2725 0001:0002A49B  2723 0001:0002A4AD  2728 0001:0002A4BC  2730 0001:0002A4C9
  2734 0001:0002A4D1  2736 0001:0002A4D4  2738 0001:0002A4E8  2741 0001:0002A4F8
  2742 0001:0002A50C  2743 0001:0002A519  2746 0001:0002A529  2747 0001:0002A539
  2749 0001:0002A54D  2754 0001:0002A55B  2758 0001:0002A567  2736 0001:0002A56A
  2759 0001:0002A574  2760 0001:0002A57D  2763 0001:0002A584  2764 0001:0002A59F
  2766 0001:0002A5D5  2767 0001:0002A5DF  2768 0001:0002A607  2769 0001:0002A614
  2770 0001:0002A621  2771 0001:0002A62E  2772 0001:0002A63E  2774 0001:0002A660
  2778 0001:0002A67C  2780 0001:0002A681  2782 0001:0002A68A  2786 0001:0002A69C
  2788 0001:0002A6AC  2789 0001:0002A6BC  2791 0001:0002A6E4  2796 0001:0002A7D4
  2797 0001:0002A7F5  2798 0001:0002A7FE  2799 0001:0002A80F  2802 0001:0002A851
  2804 0001:0002A887  2805 0001:0002A88F  2808 0001:0002A89C  2811 0001:0002A904
  2812 0001:0002A91A  2814 0001:0002A929  2815 0001:0002A945  2817 0001:0002A951
  2818 0001:0002A959  2821 0001:0002A966  2824 0001:0002A988  2825 0001:0002A9A3
  2827 0001:0002A9D9  2828 0001:0002A9E3  2829 0001:0002AA0B  2830 0001:0002AA18
  2831 0001:0002AA25  2832 0001:0002AA32  2833 0001:0002AA42  2835 0001:0002AA67
  2839 0001:0002AA86  2841 0001:0002AA8B  2844 0001:0002AAAD  2846 0001:0002AABD
  2847 0001:0002AACD  2848 0001:0002AADD  2850 0001:0002AB05  2855 0001:0002ABEC
  2856 0001:0002AC0D  2857 0001:0002AC16  2858 0001:0002AC27  2861 0001:0002AC69
  2863 0001:0002AC9F  2864 0001:0002ACA7  2866 0001:0002ACB4  2871 0001:0002AD18
  2872 0001:0002AD20  2873 0001:0002AD2E  2874 0001:0002AD3B  2876 0001:0002AD43
  2879 0001:0002AD67  2882 0001:0002AD6C  2887 0001:0002AD74  2888 0001:0002AD7B
  2889 0001:0002AD88  2896 0001:0002AD98  2898 0001:0002ADCA  2904 0001:0002ADD0
  2906 0001:0002ADF0  2907 0001:0002ADFB  2909 0001:0002AE03  2910 0001:0002AE13
  2911 0001:0002AE1F  2912 0001:0002AE2C  2913 0001:0002AE35  2914 0001:0002AE3E
  2915 0001:0002AE47  2916 0001:0002AE50  2917 0001:0002AE64  2918 0001:0002AE6D
  2919 0001:0002AE81  2920 0001:0002AE91  2921 0001:0002AE94  2922 0001:0002AE98
  2923 0001:0002AEA4  2925 0001:0002AEAB  2926 0001:0002AEB8  2927 0001:0002AEC1
  2935 0001:0002AEE8  2938 0001:0002AF09  2940 0001:0002AF13  2941 0001:0002AF1E
  2943 0001:0002AF2C  2946 0001:0002AF39  2948 0001:0002AF4F  2950 0001:0002AF5E
  2951 0001:0002AF73  2955 0001:0002AF87  2958 0001:0002AF9A  2968 0001:0002B018
  2973 0001:0002B048  2974 0001:0002B059  2975 0001:0002B06B  2980 0001:0002B07C
  2981 0001:0002B08A  2985 0001:0002B0C5  2987 0001:0002B0D7  2988 0001:0002B0DC
  2989 0001:0002B0E5  2990 0001:0002B0EF  2991 0001:0002B0F8  2992 0001:0002B101
  2993 0001:0002B118  2994 0001:0002B122  2995 0001:0002B126  2996 0001:0002B133
  2997 0001:0002B13A  2998 0001:0002B14F  2999 0001:0002B163  3000 0001:0002B178
  3002 0001:0002B17E  3003 0001:0002B18F  3004 0001:0002B199  3012 0001:0002B1D0
  3013 0001:0002B1F8  3014 0001:0002B206  3018 0001:0002B240  3020 0001:0002B251
  3021 0001:0002B25D  3026 0001:0002B288  3027 0001:0002B294  3028 0001:0002B29A
  3029 0001:0002B2A8  3032 0001:0002B2CD  3033 0001:0002B2D2  3034 0001:0002B2D8
  3035 0001:0002B2EA  3040 0001:0002B2F4  3041 0001:0002B312  3042 0001:0002B31C
  3044 0001:0002B320  3046 0001:0002B326  3047 0001:0002B32D  3049 0001:0002B32F
  3055 0001:0002B379  3056 0001:0002B37E  3059 0001:0002B390  3060 0001:0002B397
  3088 0001:0002B418  3089 0001:0002B43E  3090 0001:0002B44C  3091 0001:0002B456
  3092 0001:0002B462  3094 0001:0002B466  3095 0001:0002B477  3096 0001:0002B47D
  3097 0001:0002B487  3098 0001:0002B4A6  3092 0001:0002B4B3  3100 0001:0002B4B7
  3101 0001:0002B4C1  3104 0001:0002B4EC  3105 0001:0002B501  3106 0001:0002B50A
  3107 0001:0002B511  3112 0001:0002B52C  3113 0001:0002B533  3114 0001:0002B53A
  3115 0001:0002B541  3116 0001:0002B54A  3118 0001:0002B54E  3120 0001:0002B554
  3122 0001:0002B558  3124 0001:0002B55F  3125 0001:0002B56C  3129 0001:0002B57C
  3130 0001:0002B582  3131 0001:0002B588  3134 0001:0002B591  3141 0001:0002B598
  3142 0001:0002B5A3  3143 0001:0002B5A5  3144 0001:0002B5B3  3146 0001:0002B5CC
  3147 0001:0002B5D7  3149 0001:0002B5DC  3151 0001:0002B5E8  3152 0001:0002B5F3
  3154 0001:0002B5FB  3156 0001:0002B60A  3157 0001:0002B615  3159 0001:0002B61A
  3161 0001:0002B626  3162 0001:0002B631  3164 0001:0002B639  3168 0001:0002B646
  3170 0001:0002B661  3171 0001:0002B66E  3173 0001:0002B683  3174 0001:0002B68D
  3176 0001:0002B698  3177 0001:0002B6A1  3178 0001:0002B6A7  3179 0001:0002B6AD
  3181 0001:0002B6B3  3182 0001:0002B6BB  3183 0001:0002B6C7  3185 0001:0002B6CC
  3186 0001:0002B6CF  3187 0001:0002B6D7  3188 0001:0002B6E3  3190 0001:0002B6E8
  3191 0001:0002B6EB  3194 0001:0002B6FE  3168 0001:0002B701  3195 0001:0002B708
  3196 0001:0002B70A  3200 0001:0002B714  3201 0001:0002B71C  3202 0001:0002B725
  3203 0001:0002B736  3206 0001:0002B73C  3207 0001:0002B744  3208 0001:0002B74D
  3209 0001:0002B75A  3213 0001:0002B760  3214 0001:0002B76B  3215 0001:0002B774
  3216 0001:0002B787  3217 0001:0002B78E  3230 0001:0002B794  3232 0001:0002B7A9
  3224 0001:0002B89C

Line numbers for UFrmMain(UFrmMain.pas) segment .itext

  3219 0002:00000228  3221 0002:0000026A  3223 0002:00000289  3224 0002:00000298
  3225 0002:000002AB  3226 0002:000002BF  3228 0002:000002F3

Line numbers for UFrmSplash(UFrmSplash.pas) segment .text

    34 0001:00000000

Line numbers for SplashFormImpl(SplashFormImpl.pas) segment .text

    39 0001:0002CAE0    40 0001:0002CAF5    42 0001:0002CB06    45 0001:0002CB24
    46 0001:0002CB32    47 0001:0002CB3A    48 0001:0002CB46    51 0001:0002CB58
    52 0001:0002CB5B    53 0001:0002CB63    56 0001:0002CB68    57 0001:0002CB6B
    58 0001:0002CB73    61 0001:0002CB78    62 0001:0002CB7F    63 0001:0002CB90
    65 0001:0002CB94    66 0001:0002CB99    69 0001:0002CBA0    70 0001:0002CBA6
    71 0001:0002CBAF    74 0001:0002CBB4    75 0001:0002CBBA    76 0001:0002CBC3
    79 0001:0002CBC8    81 0001:0002CBE1    83 0001:0002CC07    84 0001:0002CC12
    95 0001:0002CC48

Line numbers for SplashFormImpl(SplashFormImpl.pas) segment .itext

    91 0002:000009FC    93 0002:00000A06

Line numbers for DialogsImpl(Core\DialogsImpl.pas) segment .text

    40 0001:0002CDD4    41 0001:0002CDD7    42 0001:0002CDE1    45 0001:0002CDE8
    46 0001:0002CDF1    47 0001:0002CE17    50 0001:0002CE1C    51 0001:0002CE25
    52 0001:0002CE49    55 0001:0002CE50    56 0001:0002CE53    57 0001:0002CE5B
    60 0001:0002CE60    61 0001:0002CE66    62 0001:0002CE82    66 0001:0002CE90
    67 0001:0002CEAC    68 0001:0002CEC6    71 0001:0002CEEC    72 0001:0002CF02
    73 0001:0002CF32    76 0001:0002CF54    77 0001:0002CF6A    78 0001:0002CF9A
    82 0001:0002CFBC    83 0001:0002CFD8    84 0001:0002CFF2    87 0001:0002D018
    88 0001:0002D02E    89 0001:0002D05E    92 0001:0002D080    93 0001:0002D08E
    94 0001:0002D09A    97 0001:0002D0AC    98 0001:0002D0BA    99 0001:0002D0D6
   105 0001:0002D0DC

Line numbers for DialogsImpl(Core\DialogsImpl.pas) segment .itext

   101 0002:00000A08   102 0002:00000A14   103 0002:00000A2B

Line numbers for RegPluginIntf(RegPluginIntf.pas) segment .text

    20 0001:00000000

Line numbers for UPluginMgr(Core\UPluginMgr.pas) segment .text

    90 0001:000308E0    91 0001:0003091A    92 0001:00030921    94 0001:0003092F
    95 0001:00030943    97 0001:00030955    99 0001:0003095F   104 0001:0003096D
   105 0001:00030982   107 0001:000309A5   109 0001:000309A7   114 0001:000309F6
   118 0001:00030ABC   119 0001:00030ACB   120 0001:00030ADB   121 0001:00030ADD
   123 0001:00030AE5   124 0001:00030AED   125 0001:00030AF5   126 0001:00030B01
   130 0001:00030B2C   131 0001:00030B5C   132 0001:00030B61   134 0001:00030B86
   139 0001:00030BE3   140 0001:00030BE6   132 0001:00030BE8   142 0001:00030C01
   143 0001:00030C19   147 0001:00030C48   148 0001:00030C6D   149 0001:00030C78
   150 0001:00030C86   154 0001:00030CAC   155 0001:00030CB4   156 0001:00030CC1
   157 0001:00030CCE   159 0001:00030CD2   160 0001:00030CDD   162 0001:00030CE1
   165 0001:00030CFC   166 0001:00030D03   167 0001:00030D14   169 0001:00030D18
   170 0001:00030D1D   173 0001:00030D24   174 0001:00030D44   178 0001:00030D4A
   180 0001:00030D55   183 0001:00030D78   184 0001:00030D7E   185 0001:00030D87
   188 0001:00030D8C   189 0001:00030D92   190 0001:00030D9B   196 0001:00030DA0
   197 0001:00030DC2   198 0001:00030DC6   200 0001:00030DEF   202 0001:00030DFF
   203 0001:00030E03   198 0001:00030E05   205 0001:00030E1E   206 0001:00030E36
   208 0001:00030E3C   209 0001:00030E50   211 0001:00030E5E   214 0001:00030E84
   215 0001:00030E9D   216 0001:00030EAC   217 0001:00030EBB   218 0001:00030EE4
   219 0001:00030F06   220 0001:00030F2B   223 0001:00030F7C   224 0001:00030F8A
   225 0001:00030F92   226 0001:00030FA1   227 0001:00030FA6   228 0001:00030FB2
   233 0001:00030FD4   234 0001:00031004   235 0001:00031011   237 0001:0003101B
   239 0001:00031031   241 0001:0003104B   242 0001:00031058   243 0001:0003105E
   244 0001:0003106C   246 0001:00031092   247 0001:00031094   250 0001:000310AC
   255 0001:0003110C   256 0001:0003113B   257 0001:00031142   258 0001:0003114E
   260 0001:00031154   262 0001:0003115B   264 0001:00031181   266 0001:000311B1
   267 0001:000311BB   262 0001:000311BD   269 0001:000311D6   270 0001:000311EE
   275 0001:00031224   276 0001:0003124C   277 0001:00031251   279 0001:00031279
   281 0001:0003129E   283 0001:000312C3   284 0001:000312C6   279 0001:000312C8
   286 0001:000312E1   277 0001:000312F9   287 0001:00031316   288 0001:0003132E
   300 0001:0003135C   301 0001:00031381   302 0001:0003139A   307 0001:000313C0
   308 0001:000313E5   309 0001:000313F0   310 0001:000313FE   316 0001:00031424
   317 0001:0003143B   318 0001:00031440   320 0001:00031468   321 0001:00031476
   323 0001:0003147A   324 0001:0003147D   318 0001:0003147F   334 0001:00031498
   335 0001:000314B0   343 0001:000314BC   345 0001:000314E4   346 0001:000314E8
   348 0001:000314F7   349 0001:00031504   351 0001:00031536   352 0001:0003156A
   353 0001:00031578   354 0001:00031587   355 0001:00031595   356 0001:000315A3
   357 0001:000315B5   356 0001:000315E2   359 0001:000315F2   362 0001:0003160F
   367 0001:0003161F   368 0001:00031634   370 0001:00031644   378 0001:00031720
   400 0001:0003173E   401 0001:00031740   403 0001:00031748   404 0001:0003175D
   406 0001:0003176A   410 0001:0003177A   412 0001:0003179C   414 0001:000317A8
   415 0001:000317BD   419 0001:000317CD   421 0001:000317EF   425 0001:000317F9
   426 0001:0003180E   428 0001:0003181E   435 0001:0003191C   437 0001:0003194C
   438 0001:0003195B   439 0001:00031969   440 0001:00031971   441 0001:0003197E
   442 0001:00031982   443 0001:00031992   445 0001:000319AE   446 0001:000319BC
   448 0001:000319F9   450 0001:00031A09   451 0001:00031A17   453 0001:00031A50
   455 0001:00031A52   460 0001:00031A8A   461 0001:00031AA6   443 0001:00031AA9
   463 0001:00031ABF   465 0001:00031ACF   468 0001:00031B9C   469 0001:00031BA3
   470 0001:00031BB4   472 0001:00031BB8   473 0001:00031BBD   479 0001:00031BC4
   480 0001:00031C06   481 0001:00031C12   482 0001:00031C20   484 0001:00031C24
   485 0001:00031C43   487 0001:00031C4D   488 0001:00031C54   489 0001:00031C5F
   495 0001:00031C98   496 0001:00031CE1   497 0001:00031CEB   498 0001:00031CF5
   500 0001:00031CF9   502 0001:00031D11   503 0001:00031D21   509 0001:00031D60
   511 0001:00031D7B   514 0001:00031DA0   517 0001:00031DD0   518 0001:00031DD6
   519 0001:00031DDF   522 0001:00031DE4   523 0001:00031DEA   524 0001:00031DF3
   530 0001:00031DF8   531 0001:00031E0D   532 0001:00031E17

Line numbers for UPluginMgr(Core\UPluginMgr.pas) segment .itext

   526 0002:00000A48   528 0002:00000A52

Line numbers for Base64EncdDecd(Core\Base64EncdDecd.pas) segment .text

    65 0001:00035824    66 0001:00035829    67 0001:00035839    68 0001:00035857
    69 0001:0003585C    70 0001:00035862    71 0001:00035882    72 0001:00035887
    73 0001:0003588E    74 0001:000358A2    77 0001:000358A8    78 0001:000358AE
    80 0001:000358D0    81 0001:000358D6    83 0001:000358DF    84 0001:000358E1
    86 0001:000358FF    88 0001:00035908    89 0001:0003590A    91 0001:00035926
   102 0001:00035930   103 0001:00035942   105 0001:00035947   106 0001:0003595D
   107 0001:0003595F   108 0001:00035965   110 0001:0003596A   111 0001:00035974
   112 0001:0003597B   113 0001:00035980   114 0001:00035985   115 0001:00035990
   116 0001:00035995   117 0001:000359A0   118 0001:000359A5   119 0001:000359B0
   120 0001:000359BC   121 0001:000359BF   122 0001:000359C2   123 0001:000359C6
   125 0001:000359CC   126 0001:000359CF   127 0001:000359D3   128 0001:000359D6
   108 0001:000359DB   131 0001:000359E0   132 0001:000359F4   133 0001:000359FE
   147 0001:00035A08   150 0001:00035A14   151 0001:00035A25   153 0001:00035A28
   155 0001:00035A46   160 0001:00035A5C   166 0001:00035A64   167 0001:00035A6B
   169 0001:00035A6D   170 0001:00035A6F   171 0001:00035A88   172 0001:00035A95
   173 0001:00035A97   174 0001:00035A99   176 0001:00035A9D   178 0001:00035ABF
   179 0001:00035AC0   180 0001:00035AC4   181 0001:00035ADB   184 0001:00035ADF
   174 0001:00035AE0   186 0001:00035AE4   187 0001:00035AF2   188 0001:00035AF4
   190 0001:00035AFC   192 0001:00035B0E   193 0001:00035B15   194 0001:00035B1F
   195 0001:00035B22   196 0001:00035B28   197 0001:00035B2D   199 0001:00035B35
   200 0001:00035B42   201 0001:00035B44   203 0001:00035B4A   204 0001:00035B51
   205 0001:00035B52   206 0001:00035B55   201 0001:00035B56   208 0001:00035B5C
   209 0001:00035B5F   197 0001:00035B63   211 0001:00035B6B   212 0001:00035B7F
   213 0001:00035B85   218 0001:00035B8C   219 0001:00035B95   220 0001:00035BA6
   221 0001:00035BB4   222 0001:00035BC5   223 0001:00035BD3   224 0001:00035BDE
   226 0001:00035BF5   229 0001:00035C12   231 0001:00035C22   236 0001:00035C28
   237 0001:00035C31   238 0001:00035C42   239 0001:00035C50   240 0001:00035C61
   241 0001:00035C6F   242 0001:00035C7A   244 0001:00035C91   247 0001:00035CAE
   249 0001:00035CBE   321 0001:00035CC3

Line numbers for EncdDecdImpl(Core\EncdDecdImpl.pas) segment .text

    34 0001:00035DFC    35 0001:00035E04    36 0001:00035E0C    37 0001:00035E14
    38 0001:00035E1C    39 0001:00035E24    52 0001:00035E2C    53 0001:00035E5B
    54 0001:00035E5F    55 0001:00035E6E    56 0001:00035E78    57 0001:00035E88
    58 0001:00035E8A    59 0001:00035E8F    60 0001:00035E94    61 0001:00035E9D
    62 0001:00035EB7    64 0001:00035ED1    65 0001:00035EE8    66 0001:00035EF5
    67 0001:00035EFF    69 0001:00035F24    62 0001:00035F27    70 0001:00035F2A
    71 0001:00035F35    82 0001:00035FA0    83 0001:00035FD2    84 0001:00035FDC
    85 0001:00035FE0    86 0001:00035FEF    87 0001:00035FF9    88 0001:00036009
    89 0001:0003600B    90 0001:0003603C    91 0001:00036041    94 0001:0003605E
    95 0001:0003608C    96 0001:00036099    97 0001:000360A4    98 0001:000360A9
   100 0001:000360B4   101 0001:000360B7   102 0001:000360CC   103 0001:000360D2
   104 0001:000360D5   105 0001:000360EA   106 0001:000360F7   107 0001:00036101
   126 0001:0003616C   127 0001:000361A1   128 0001:000361A8   129 0001:000361B2
   130 0001:000361BB   132 0001:000361D7   134 0001:000361F5   136 0001:00036213
   138 0001:0003622F   139 0001:0003623E   138 0001:00036275   142 0001:00036278
   144 0001:00036281   146 0001:0003628C   147 0001:000362A6   150 0001:000362F8
   151 0001:00036306   152 0001:00036322   155 0001:00036328   156 0001:0003632B
   157 0001:00036334   160 0001:00036338   161 0001:00036341   162 0001:0003634A
   165 0001:00036350   166 0001:00036353   167 0001:0003635C   170 0001:00036360
   171 0001:00036369   172 0001:00036372   178 0001:00036378

Line numbers for EncdDecdImpl(Core\EncdDecdImpl.pas) segment .itext

   174 0002:00000A54   175 0002:00000A60   176 0002:00000A77

Line numbers for ProgressForm(ProgressForm.pas) segment .text

    29 0001:00036614    30 0001:0003661A    31 0001:00036627    32 0001:00036634
    33 0001:00036641    35 0001:0003664B

Line numbers for ProgressFormImpl(Core\ProgressFormImpl.pas) segment .text

    35 0001:000367D8    36 0001:000367E4    37 0001:000367E9    40 0001:00036800
    41 0001:00036806    43 0001:0003680C    45 0001:00036823    46 0001:0003682B
    49 0001:00036830    50 0001:0003683E    51 0001:00036845    52 0001:0003684A
    53 0001:00036856    56 0001:00036868    57 0001:0003686E    60 0001:00036875
    61 0001:0003687A    62 0001:00036882    64 0001:00036887    67 0001:0003688C
    68 0001:00036898    69 0001:0003689F    70 0001:000368AF    71 0001:000368BF
    73 0001:000368CF    76 0001:000368D4    77 0001:000368DD    78 0001:000368E4
    80 0001:000368F4    81 0001:00036900    84 0001:00036904    85 0001:00036912
    86 0001:0003692E    92 0001:00036934

Line numbers for ProgressFormImpl(Core\ProgressFormImpl.pas) segment .itext

    88 0002:00000A8C    89 0002:00000A98    90 0002:00000AAF

Line numbers for SysInfoImpl(Core\SysInfoImpl.pas) segment .text

    62 0001:000384D8    63 0001:000384EE    64 0001:00038502    67 0001:00038524
    68 0001:00038539    69 0001:00038542    72 0001:00038560    73 0001:0003856E
    74 0001:00038575    75 0001:0003857F    76 0001:0003858B    79 0001:0003859C
    80 0001:000385B5    81 0001:000385CE    82 0001:000385D9    83 0001:000385E0
    86 0001:0003861C    87 0001:00038625    88 0001:0003862F    91 0001:00038634
    92 0001:0003863D    93 0001:00038647    99 0001:0003864C   100 0001:0003864F
   104 0001:00038650   105 0001:00038653   108 0001:00038654   109 0001:00038674
   110 0001:0003867F   113 0001:000386A0   114 0001:000386C0   115 0001:000386CB
   119 0001:000386EC   120 0001:000386EF   124 0001:000386F0   125 0001:000386F3
   129 0001:000386F4   130 0001:000386F7   133 0001:000386F8   134 0001:00038701
   135 0001:0003870B   138 0001:00038710   139 0001:00038719   140 0001:00038723
   144 0001:00038728   145 0001:0003872B   148 0001:0003872C   149 0001:0003874C
   150 0001:00038757   153 0001:00038778   154 0001:00038798   155 0001:000387A3
   158 0001:000387C4   159 0001:000387D2   160 0001:000387EE   166 0001:000387F4

Line numbers for SysInfoImpl(Core\SysInfoImpl.pas) segment .itext

   162 0002:00000AC4   163 0002:00000AD0   164 0002:00000AE7

Line numbers for RunOnce(RunOnce.pas) segment .text

    29 0001:000396B4    30 0001:000396B7    31 0001:000396CD    33 0001:000396D6
    35 0001:000396EF    36 0001:00039707    38 0001:00039710    39 0001:0003971B
    41 0001:0003971D    44 0001:00039728    45 0001:00039740    47 0001:00039749
    50 0001:00039754    53 0001:000397A8    54 0001:000397AB    55 0001:000397B6
    56 0001:000397C1    83 0001:000397C4    85 0001:000397D4

Line numbers for RunOnce(RunOnce.pas) segment .itext

    79 0002:00000AFC    80 0002:00000B08    82 0002:00000B0D

Line numbers for NvBUS(NvBUS.dpr) segment .itext

    20 0002:00000B10    21 0002:00000B27    23 0002:00000B2E    27 0002:00000B3E
    28 0002:00000B47    29 0002:00000B53    30 0002:00000B5C    31 0002:00000B6F
    32 0002:00000B83    33 0002:00000B91    34 0002:00000B9D    35 0002:00000BAB
    36 0002:00000BB2

Bound resource files

UFrmException.dfm
F:\workspace\jianli\client\nova\LibrarySupport\DCEF\demos\filescheme\ceffilescheme.res
UFrmMain.dfm
UFrmSplash.dfm
ProgressForm.dfm
NvBUS.res
NvBUS.drf


Program entry point at 0002:00000B10
